(lp0
(lp1
F-0.118
aF-0.133
aF-0.137
aF-0.138
aF-0.141
aF-0.147
aF-0.148
aF-0.15
aF-0.152
aF-0.175
aF-0.154
aF-0.145
aF-0.138
aF-0.137
aF-0.132
aF-0.118
aF-0.131
aF-0.103
aF-0.086
aF-0.078
aF-0.079
aF-0.071
aF-0.042
aF-0.06
aF-0.029
aF-0.037
aF-0.026
aF-0.041
aF-0.019
aF0.004
aF-0.011
aF0.006
aF-0.066
aF-0.032
aF-0.034
aF0.118
aF-0.048
aF-0.015
aF0.255
aF0.284
aF0.258
aF0.35
aF0.058
aF-0.229
aF0.137
aF0.243
aF0.546
aF0.683
aF0.769
aF0.771
aF0.88
aF1.069
aF1.003
aF0.895
aF0.732
aF0.578
aF0.542
aF0.588
aF0.702
aF0.787
aF0.814
aF0.621
aF0.28
aF-0.086
aF-0.404
aF-0.616
aF-0.738
aF-0.679
aF-0.619
aF-0.543
aF-0.433
aF-0.312
aF-0.163
aF0.106
aF0.299
aF0.538
aF0.663
aF0.756
aF0.739
aF0.806
aF0.656
aF0.521
aF0.217
aF-0.05
aF-0.17
aF-0.179
aF-0.131
aF0.046
aF0.078
aF0.3
aF0.334
aF0.265
aF0.169
aF0.075
aF-0.068
aF-0.101
aF-0.039
aF-0.017
aF-0.003
aF-0.051
aF-0.111
aF-0.275
aF-0.308
aF-0.435
aF-0.496
aF-0.414
aF-0.333
aF-0.22
aF0.05
aF0.873
aF2.13
aF3.006
aF3.247
aF3.105
aF2.598
aF1.213
aF-0.911
aF-2.199
aF-2.402
aF-1.497
aF0.045
aF1.863
aF3.52
aF4.545
aF4.661
aF4.267
aF3.603
aF2.776
aF1.784
aF0.942
aF0.348
aF0.18
aF0.225
aF0.58
aF1.039
aF1.028
aF0.555
aF0.137
aF0.408
aF1.081
aF2.185
aF4.553
aF4.416
aF3.616
aF2.957
aF2.281
aF1.631
aF1.156
aF0.906
aF1.001
aF1.029
aF1.226
aF1.486
aF1.666
aF1.548
aF0.898
aF0.531
aF0.481
aF0.558
aF0.628
aF0.579
aF0.388
aF0.409
aF0.801
aF1.224
aF1.597
aF1.924
aF2.059
aF1.977
aF1.917
aF1.774
aF1.407
aF1.004
aF-0.157
aF-1.394
aF0.067
aF1.341
aF1.836
aF1.4
aF0.552
aF-0.026
aF-0.297
aF-0.303
aF-0.452
aF-0.374
aF-0.372
aF-0.389
aF-0.499
aF-0.817
aF-1.219
aF-1.657
aF-2.092
aF-2.117
aF-1.597
aF-1.056
aF-0.731
aF-0.442
aF-0.424
aF-0.473
aF-0.433
aF-0.449
aF-0.335
aF-0.339
aF-0.419
aF-0.666
aF-0.46
aF-0.045
aF0.103
aF0.374
aF-0.846
aF-0.721
aF-0.801
aF-0.786
aF-0.783
aF-0.776
aF-0.774
aa(lp2
F0.206
aF0.193
aF0.184
aF0.173
aF0.164
aF0.149
aF0.139
aF0.124
aF0.119
aF0.112
aF0.107
aF0.101
aF0.094
aF0.089
aF0.08
aF0.069
aF0.07
aF0.084
aF0.065
aF0.061
aF0.062
aF0.052
aF0.061
aF0.044
aF0.057
aF0.057
aF0.075
aF0.039
aF0.06
aF0.073
aF0.053
aF0.04
aF-0.056
aF-0.023
aF-0.035
aF0.052
aF0.151
aF0.119
aF0.597
aF0.838
aF1.118
aF0.414
aF-0.226
aF-0.153
aF0.078
aF-0.159
aF-0.526
aF-0.413
aF-0.204
aF0.168
aF0.191
aF0.079
aF-0.158
aF-0.246
aF-0.4
aF-0.397
aF-0.295
aF-0.171
aF-0.092
aF-0.05
aF0.031
aF0.257
aF0.591
aF0.922
aF1.169
aF1.373
aF1.297
aF1.002
aF0.796
aF0.456
aF0.253
aF0.197
aF0.151
aF0.114
aF0.037
aF0.055
aF-0.002
aF0.013
aF0.078
aF0.104
aF0.19
aF0.34
aF0.336
aF0.39
aF0.388
aF0.358
aF0.331
aF0.318
aF0.332
aF0.319
aF0.319
aF0.349
aF0.26
aF0.213
aF0.226
aF0.268
aF0.223
aF0.161
aF0.158
aF0.235
aF0.256
aF0.217
aF0.114
aF0.125
aF0.225
aF0.301
aF0.39
aF0.337
aF0.066
aF-0.606
aF-1.358
aF-1.406
aF-0.941
aF-0.362
aF0.245
aF1.356
aF2.192
aF1.883
aF1.081
aF0.331
aF0.234
aF1.033
aF2.61
aF4.41
aF6.382
aF7.857
aF8.636
aF8.74
aF8.24
aF7.433
aF6.545
aF5.785
aF5.313
aF5.501
aF6.365
aF6.849
aF6.294
aF5.057
aF4.211
aF3.573
aF2.976
aF1.536
aF-0.384
aF-1.996
aF-2.767
aF-2.975
aF-2.695
aF-2.152
aF-1.615
aF-1.084
aF-0.621
aF-0.254
aF0.042
aF0.186
aF0.206
aF-0.103
aF-0.243
aF-0.465
aF-0.674
aF-0.74
aF-0.764
aF-0.911
aF-1.017
aF-1.029
aF-0.723
aF-0.413
aF0.053
aF0.588
aF1.148
aF1.771
aF-1.411
aF-12.727
aF-13.503
aF0.584
aF8.975
aF11.455
aF10.48
aF8.254
aF5.627
aF3.386
aF1.795
aF0.613
aF-0.25
aF-0.673
aF-1.004
aF-1.309
aF-1.651
aF-1.507
aF-1.398
aF-1.065
aF-0.712
aF-0.41
aF0.202
aF0.532
aF0.756
aF0.719
aF0.577
aF0.384
aF0.473
aF0.474
aF0.387
aF0.431
aF0.258
aF0.217
aF-0.311
aF-1.018
aF-1.648
aF-1.903
aF-1.55
aF0.785
aF-0.015
aF-0.145
aF-0.13
aF-0.134
aF-0.141
aF-0.149
aa(lp3
F20.514
aF20.515
aF20.516
aF20.518
aF20.519
aF20.52
aF20.523
aF20.557
aF20.505
aF20.543
aF20.563
aF20.546
aF20.554
aF20.542
aF20.557
aF20.555
aF20.571
aF20.566
aF20.573
aF20.57
aF20.561
aF20.558
aF20.562
aF20.565
aF20.566
aF20.565
aF20.538
aF20.522
aF20.466
aF20.386
aF20.345
aF20.341
aF20.393
aF20.358
aF20.317
aF20.428
aF20.778
aF21.087
aF21.519
aF22.077
aF22.251
aF22.346
aF22.74
aF23.005
aF23.086
aF23.094
aF23.073
aF23.001
aF22.698
aF22.458
aF22.206
aF22.04
aF21.919
aF21.858
aF21.778
aF21.713
aF21.714
aF21.642
aF21.645
aF21.551
aF21.508
aF21.464
aF21.431
aF21.368
aF21.32
aF21.296
aF21.268
aF21.234
aF21.214
aF21.239
aF21.14
aF21.147
aF21.093
aF21.054
aF21.065
aF21.067
aF21.046
aF21.06
aF21.038
aF21.016
aF21.005
aF20.976
aF20.952
aF20.935
aF20.902
aF20.894
aF20.888
aF20.931
aF20.9
aF20.894
aF20.925
aF20.892
aF20.92
aF20.906
aF20.913
aF20.882
aF20.931
aF20.904
aF20.99
aF20.952
aF21.029
aF21.033
aF21.037
aF20.972
aF20.982
aF20.925
aF20.998
aF20.94
aF22.079
aF25.937
aF31.569
aF38.858
aF47.698
aF58.098
aF69.942
aF82.861
aF96.055
aF109.378
aF122.985
aF136.596
aF150.279
aF163.972
aF177.761
aF-168.346
aF-154.349
aF-140.416
aF-126.547
aF-112.693
aF-98.849
aF-85.012
aF-71.184
aF-57.343
aF-43.463
aF-29.485
aF-15.533
aF-1.641
aF12.208
aF24.324
aF32.758
aF38.384
aF41.73
aF41.474
aF39.215
aF36.695
aF34.281
aF32.122
aF30.211
aF28.524
aF27.113
aF25.923
aF24.971
aF24.214
aF23.63
aF23.155
aF22.808
aF22.516
aF22.328
aF22.19
aF22.085
aF21.951
aF21.805
aF21.707
aF21.669
aF21.57
aF21.496
aF21.418
aF21.385
aF21.361
aF21.359
aF21.315
aF21.165
aF21.075
aF21.64
aF22.506
aF22.551
aF22.774
aF22.935
aF22.83
aF22.603
aF22.354
aF22.206
aF21.976
aF21.886
aF21.761
aF21.632
aF21.584
aF21.488
aF21.444
aF21.432
aF21.448
aF21.456
aF21.475
aF21.519
aF21.53
aF21.58
aF21.673
aF21.658
aF21.638
aF21.676
aF21.689
aF21.669
aF21.683
aF21.672
aF21.655
aF21.584
aF21.496
aF21.508
aF21.3
aF20.865
aF20.761
aF20.341
aF20.305
aF20.308
aF20.316
aF20.315
aF20.32
aa(lp4
F0.0
aF0.0
aF0.0
aF0.0
aF0.0
aF0.0
aF0.0
aF0.0
aF0.0
aF0.0
aF0.0
aF0.0
aF0.0
aF0.0
aF0.0
aF0.0
aF0.0
aF0.0
aF0.0
aF0.0
aF0.0
aF0.0
aF0.0
aF0.0
aF0.0
aF0.0
aF0.0
aF0.0
aF0.0
aF0.0
aF0.0
aF0.0
aF0.0
aF0.0
aF0.0
aF0.0
aF0.0
aF0.0
aF0.0
aF0.0
aF0.0
aF0.0
aF0.0
aF0.0
aF0.0
aF0.0
aF0.0
aF0.0
aF0.0
aF0.0
aF0.0
aF31.2
aF37.0
aF42.8
aF48.9
aF54.6
aF60.3
aF66.8
aF71.7
aF75.5
aF78.3
aF80.5
aF81.0
aF80.9
aF80.3
aF79.3
aF78.4
aF77.3
aF75.9
aF74.9
aF74.1
aF73.6
aF73.5
aF73.7
aF73.7
aF74.1
aF74.1
aF74.2
aF74.2
aF74.5
aF74.3
aF74.4
aF74.3
aF74.3
aF74.1
aF74.2
aF74.1
aF74.1
aF74.1
aF74.0
aF73.9
aF73.9
aF74.1
aF74.1
aF74.3
aF74.3
aF74.3
aF74.2
aF74.0
aF74.0
aF73.8
aF73.7
aF73.5
aF73.4
aF73.2
aF73.1
aF73.1
aF73.0
aF72.8
aF72.7
aF72.9
aF73.4
aF73.8
aF74.5
aF74.9
aF75.6
aF75.8
aF76.0
aF76.7
aF77.2
aF77.2
aF77.4
aF77.4
aF77.4
aF77.3
aF77.5
aF77.3
aF77.1
aF76.8
aF76.5
aF76.2
aF76.0
aF75.8
aF75.5
aF75.4
aF75.3
aF75.2
aF75.1
aF75.2
aF75.3
aF75.3
aF76.2
aF77.1
aF77.8
aF78.4
aF78.5
aF78.6
aF78.2
aF78.4
aF77.6
aF76.5
aF75.9
aF75.1
aF74.6
aF74.2
aF74.3
aF75.5
aF77.0
aF79.0
aF82.2
aF86.1
aF90.1
aF93.6
aF96.4
aF99.3
aF102.2
aF104.1
aF105.8
aF107.1
aF108.3
aF109.4
aF110.5
aF111.8
aF114.2
aF114.6
aF114.9
aF114.9
aF115.1
aF115.1
aF115.5
aF114.9
aF114.0
aF113.1
aF112.6
aF112.1
aF110.7
aF108.4
aF105.9
aF101.9
aF98.1
aF93.8
aF91.4
aF84.5
aF78.9
aF73.5
aF68.7
aF63.9
aF59.2
aF54.2
aF49.2
aF44.2
aF39.1
aF34.4
aF29.5
aF24.5
aF19.9
aF14.8
aF9.6
aF11.1
aF0.0
aF0.0
aF0.0
aF0.0
aF0.0
aF0.0
aF0.0
aa(lp5
F59.404205322265625
aF14.204813957214355
aF4.17899227142334
aF1.4888359308242798
aF0.7943609356880188
aF0.7133869528770447
aF0.893961489200592
aF1.8701692819595337
aF2.6204276084899902
aF3.0277881622314453
aF2.512794017791748
aF2.090834379196167
aF2.123542070388794
aF2.17501163482666
aF1.9351553916931152
aF1.657145380973816
aF1.0782181024551392
aF1.9450913667678833
aF2.1249351501464844
aF1.4316668510437012
aF1.921589970588684
aF1.1069018840789795
aF1.9994018077850342
aF0.9520940780639648
aF2.077471971511841
aF0.8762437105178833
aF1.6293983459472656
aF0.8273303508758545
aF0.34109795093536377
aF1.0438040494918823
aF0.7647753357887268
aF-0.7290593385696411
aF-0.41605016589164734
aF0.634861409664154
aF-1.3063570261001587
aF1.6962635517120361
aF1.2073228359222412
aF0.31674331426620483
aF-7.056535720825195
aF-5.266817569732666
aF-0.8119232654571533
aF-0.41582760214805603
aF3.2829692363739014
aF11.3445405960083
aF7.985355377197266
aF5.153819561004639
aF-5.536581516265869
aF-8.92784595489502
aF-3.901789665222168
aF-2.616131067276001
aF-3.2911815643310547
aF-36.19491195678711
aF-61.423912048339844
aF-55.63622283935547
aF-45.543373107910156
aF-31.01616668701172
aF-16.53229331970215
aF-4.885985374450684
aF5.392404556274414
aF13.10962963104248
aF-3.4344308376312256
aF-24.168575286865234
aF-38.040653228759766
aF-58.71460723876953
aF-68.78004455566406
aF-54.800987243652344
aF-54.7290153503418
aF-45.008460998535156
aF-36.224578857421875
aF-20.381526947021484
aF-17.96156120300293
aF6.8729095458984375
aF11.50301456451416
aF19.710561752319336
aF27.349336624145508
aF24.63245964050293
aF21.966922760009766
aF13.311502456665039
aF14.030742645263672
aF-0.625266432762146
aF-5.491053581237793
aF-15.521421432495117
aF-23.374847412109375
aF-23.16131019592285
aF-22.375431060791016
aF-12.600473403930664
aF-10.396746635437012
aF-9.522934913635254
aF-1.8723952770233154
aF-11.78146743774414
aF-13.373918533325195
aF-8.65285587310791
aF-22.618629455566406
aF-15.958351135253906
aF-17.763452529907227
aF-5.509781360626221
aF-10.679722785949707
aF-4.899836540222168
aF-8.076104164123535
aF-3.8028790950775146
aF-14.229141235351562
aF-4.468038082122803
aF-6.268812656402588
aF-0.7834281325340271
aF-0.3533207178115845
aF5.790013313293457
aF9.224420547485352
aF19.330665588378906
aF15.102019309997559
aF9.969443321228027
aF-15.47078800201416
aF-40.320796966552734
aF-65.57343292236328
aF-101.49039459228516
aF-140.1964569091797
aF-139.5979766845703
aF-100.32148742675781
aF-46.38600540161133
aF44.81873321533203
aF141.20335388183594
aF241.4583282470703
aF324.1750183105469
aF366.07843017578125
aF357.49981689453125
aF347.59454345703125
aF291.50811767578125
aF259.3616027832031
aF209.29693603515625
aF154.2900390625
aF120.7967529296875
aF95.08418273925781
aF83.49223327636719
aF125.95903778076172
aF162.2963409423828
aF100.54889678955078
aF56.41814041137695
aF6.822274208068848
aF11.769135475158691
aF49.38999557495117
aF86.98782348632812
aF110.42044067382812
aF109.73860931396484
aF105.93119812011719
aF80.7706298828125
aF50.56507873535156
aF41.14714050292969
aF26.221370697021484
aF28.11257553100586
aF46.31338119506836
aF35.47801208496094
aF47.327781677246094
aF50.29985427856445
aF50.000606536865234
aF54.121429443359375
aF54.660667419433594
aF61.37196350097656
aF95.0275650024414
aF146.62245178222656
aF189.9067840576172
aF221.95913696289062
aF241.38323974609375
aF268.454345703125
aF241.45852661132812
aF227.84205627441406
aF203.92518615722656
aF192.36099243164062
aF161.4827117919922
aF130.3704071044922
aF122.47931671142578
aF96.60906982421875
aF46.043643951416016
aF-51.41800308227539
aF-0.6884417533874512
aF175.5097198486328
aF232.3900909423828
aF126.5813980102539
aF56.53445816040039
aF-0.9211816191673279
aF-57.25862503051758
aF-44.55853271484375
aF-50.23835372924805
aF-38.044952392578125
aF-62.91748809814453
aF-34.29591369628906
aF-41.63213348388672
aF-17.531803131103516
aF-53.15679931640625
aF-64.69779968261719
aF-92.52804565429688
aF-95.33984375
aF-106.97765350341797
aF-102.93292236328125
aF-95.51316833496094
aF-83.07328033447266
aF-61.22370147705078
aF-44.6254997253418
aF-49.84410858154297
aF-52.2791633605957
aF-52.68314743041992
aF-59.28059387207031
aF-50.051448822021484
aF-55.4031982421875
aF-66.24751281738281
aF-69.84929656982422
aF-43.562095642089844
aF-31.687423706054688
aF-21.0474796295166
aF-20.833343505859375
aF-30.5435791015625
aF0.0
aF0.0
aF0.0
aF0.0
aF0.0
aF0.0
aF0.0
aa(lp6
F-21.055334091186523
aF-3.5662617683410645
aF0.5030717253684998
aF1.4619046449661255
aF1.5194432735443115
aF2.3133838176727295
aF1.785221815109253
aF1.1672873497009277
aF1.119544267654419
aF0.415642648935318
aF1.0472512245178223
aF1.1299183368682861
aF1.6297434568405151
aF1.2829475402832031
aF0.7815371751785278
aF0.8545172214508057
aF0.8385810256004333
aF-0.34037619829177856
aF1.721760630607605
aF1.1516250371932983
aF-0.21901066601276398
aF1.5494017601013184
aF-0.15187399089336395
aF0.6694691777229309
aF-0.5250176191329956
aF1.0860981941223145
aF0.3397565484046936
aF0.3398139476776123
aF0.41452160477638245
aF-0.7686665058135986
aF-0.5761837363243103
aF2.4168574810028076
aF0.3426729440689087
aF0.8507956862449646
aF-1.069801688194275
aF0.8163869976997375
aF0.8967912793159485
aF1.3644683361053467
aF5.39232873916626
aF3.5449349880218506
aF2.2143795490264893
aF0.8787120580673218
aF-2.252943992614746
aF-11.105765342712402
aF-17.49756622314453
aF-18.418729782104492
aF-24.873090744018555
aF-10.219338417053223
aF-5.607996940612793
aF-1.006300449371338
aF1.37307608127594
aF-13.456111907958984
aF-26.559080123901367
aF-24.61516761779785
aF-27.231958389282227
aF-33.67499923706055
aF-35.74270248413086
aF-35.733192443847656
aF-37.201839447021484
aF-41.476280212402344
aF-40.5415153503418
aF-46.50345993041992
aF-50.51670455932617
aF-59.745296478271484
aF-56.876983642578125
aF-47.778472900390625
aF-17.571487426757812
aF-22.952159881591797
aF7.14210319519043
aF10.129415512084961
aF11.36833667755127
aF10.966249465942383
aF12.706011772155762
aF13.626619338989258
aF8.151690483093262
aF9.615165710449219
aF8.831436157226562
aF3.5494210720062256
aF-2.0502703189849854
aF-4.923116207122803
aF-13.271450996398926
aF-7.394667625427246
aF-17.106489181518555
aF-12.481058120727539
aF-12.171677589416504
aF-6.802115440368652
aF-3.454691171646118
aF-6.639771461486816
aF-4.292384147644043
aF-2.1219594478607178
aF-6.238514423370361
aF0.39068520069122314
aF-0.7467592358589172
aF-0.7606229186058044
aF-6.328651428222656
aF-5.412109375
aF-1.9947513341903687
aF0.5228381156921387
aF-5.435788154602051
aF4.746099472045898
aF-5.611683368682861
aF-3.910393238067627
aF-2.5874927043914795
aF-6.639459133148193
aF-3.7361292839050293
aF-8.575797080993652
aF-4.0481719970703125
aF1.8308712244033813
aF-7.850996494293213
aF-28.670377731323242
aF-54.5417594909668
aF-85.92864990234375
aF-113.06914520263672
aF-135.9438018798828
aF-135.2400665283203
aF-111.27542114257812
aF-87.4264907836914
aF-48.91337203979492
aF-20.658233642578125
aF-27.802644729614258
aF-69.62862396240234
aF-150.822265625
aF-240.2930145263672
aF-329.57440185546875
aF-422.29071044921875
aF-438.8477783203125
aF-426.2165832519531
aF-423.24822998046875
aF-410.7073669433594
aF-400.3655090332031
aF-385.4642333984375
aF-396.69598388671875
aF-453.544921875
aF-528.9852294921875
aF-485.8163146972656
aF-363.94732666015625
aF-278.27783203125
aF-195.78623962402344
aF-128.19923400878906
aF-66.1259994506836
aF-8.88437271118164
aF94.49453735351562
aF117.57715606689453
aF115.20244598388672
aF96.1452407836914
aF57.66348648071289
aF30.26263999938965
aF7.704013824462891
aF-11.409587860107422
aF-29.01348114013672
aF-45.70018768310547
aF-61.23072052001953
aF-60.1282958984375
aF-66.38355255126953
aF-50.8009147644043
aF-70.61742401123047
aF-79.36865997314453
aF-80.00648498535156
aF-77.12765502929688
aF-73.60981750488281
aF-85.46825408935547
aF-94.7006607055664
aF-94.61568450927734
aF-113.12590789794922
aF-110.75196838378906
aF-128.28823852539062
aF-130.1195526123047
aF-119.92637634277344
aF-121.4719467163086
aF-111.1757583618164
aF-82.25277709960938
aF-159.81324768066406
aF-302.1888732910156
aF-447.0714416503906
aF-356.8693542480469
aF-279.6333923339844
aF-131.4467010498047
aF4.151767730712891
aF75.07495880126953
aF123.46125030517578
aF165.8229522705078
aF182.71971130371094
aF167.00196838378906
aF165.4436798095703
aF153.114990234375
aF156.36875915527344
aF131.62286376953125
aF136.42587280273438
aF98.72332763671875
aF67.77406311035156
aF49.6627197265625
aF19.544906616210938
aF24.533449172973633
aF22.874435424804688
aF35.03346252441406
aF45.50358963012695
aF66.5530014038086
aF67.5456771850586
aF75.12680053710938
aF84.33167266845703
aF97.89541625976562
aF131.85301208496094
aF139.17184448242188
aF198.99560546875
aF318.7480163574219
aF374.0788879394531
aF355.7424621582031
aF327.35687255859375
aF288.8426513671875
aF0.0
aF0.0
aF0.0
aF0.0
aF0.0
aF0.0
aF0.0
aa(lp7
F0.0
aF0.0
aF0.0
aF0.0
aF0.0
aF0.0
aF0.0
aF0.0
aF0.0
aF0.0
aF0.0
aF0.0
aF0.0
aF0.0
aF0.0
aF0.0
aF0.0
aF0.0
aF0.0
aF0.0
aF0.0
aF0.0
aF0.0
aF0.0
aF0.0
aF0.0
aF0.0
aF0.0
aF0.0
aF0.0
aF0.0
aF0.0
aF0.0
aF0.0
aF0.0
aF0.0
aF0.0
aF0.0
aF0.0
aF0.0
aF0.0
aF0.0
aF0.0
aF0.0
aF0.0
aF0.0
aF0.0
aF0.0
aF0.0
aF0.0
aF0.0
aF0.0
aF0.0
aF0.0
aF0.0
aF0.0
aF0.0
aF0.0
aF0.0
aF0.0
aF0.0
aF0.0
aF0.0
aF0.0
aF0.0
aF0.0
aF0.0
aF0.0
aF0.0
aF0.0
aF0.0
aF0.0
aF0.0
aF0.0
aF0.0
aF0.0
aF0.0
aF0.0
aF0.0
aF0.0
aF0.0
aF0.0
aF0.0
aF0.0
aF0.0
aF0.0
aF0.0
aF0.0
aF0.0
aF0.0
aF0.0
aF0.0
aF0.0
aF0.0
aF0.0
aF0.0
aF0.0
aF0.0
aF0.0
aF0.0
aF0.0
aF0.0
aF0.0
aF0.0
aF0.0
aF0.0
aF0.0
aF0.0
aF0.0
aF0.0
aF0.0
aF0.0
aF0.0
aF0.0
aF0.0
aF0.0
aF0.0
aF0.0
aF0.0
aF0.0
aF0.0
aF0.0
aF0.0
aF0.0
aF0.0
aF0.0
aF0.0
aF0.0
aF0.0
aF0.0
aF0.0
aF0.0
aF0.0
aF0.0
aF0.0
aF0.0
aF0.0
aF0.0
aF0.0
aF0.0
aF0.0
aF0.0
aF0.0
aF0.0
aF0.0
aF0.0
aF0.0
aF0.0
aF0.0
aF0.0
aF0.0
aF0.0
aF0.0
aF0.0
aF0.0
aF0.0
aF0.0
aF0.0
aF0.0
aF0.0
aF0.0
aF0.0
aF0.0
aF0.0
aF0.0
aF0.0
aF0.0
aF0.0
aF0.0
aF0.0
aF0.0
aF0.0
aF0.0
aF0.0
aF0.0
aF0.0
aF0.0
aF0.0
aF0.0
aF0.0
aF0.0
aF0.0
aF0.0
aF0.0
aF0.0
aF0.0
aF0.0
aF0.0
aF0.0
aF0.0
aF0.0
aF0.0
aF0.0
aF0.0
aF0.0
aF0.0
aF0.0
aF0.0
aF0.0
aF0.0
aF0.0
aF0.0
aF0.0
aF0.0
aF0.0
aF0.0
aF0.0
aF0.0
aF0.0
aF0.0
aF0.0
aF0.0
aF0.0
aF0.0
aF0.0
aF0.0
aa(lp8
a(lp9
a(lp10
a(lp11
a(lp12
a(lp13
a(lp14
a(lp15
a(lp16
I0
aI0
aI0
aI0
aI0
aI0
aI0
aI0
aI0
aI0
aI0
aI0
aI0
aI0
aI0
aI0
aI0
aI0
aI0
aI0
aI0
aI0
aI0
aI0
aI0
aI0
aI0
aI0
aI0
aI0
aI0
aI0
aI0
aI0
aI0
aI0
aI0
aI0
aI0
aI0
aI0
aI0
aI0
aI0
aI0
aI0
aI0
aI0
aI0
aI0
aI0
aI0
aI0
aI0
aI0
aI0
aI0
aI0
aI0
aI0
aI0
aI0
aI0
aI0
aI0
aI0
aI0
aI0
aI0
aI0
aI0
aI0
aI0
aI0
aI0
aI0
aI0
aI0
aI0
aI0
aI0
aI0
aI0
aI0
aI0
aI0
aI0
aI0
aI0
aI0
aI0
aI0
aI0
aI0
aI0
aI0
aI0
aI0
aI0
aI0
aI0
aI0
aI0
aI0
aI0
aI0
aI0
aI0
aI0
aI0
aI0
aI0
aI0
aI0
aI0
aI0
aI0
aI0
aI0
aI0
aI0
aI0
aI0
aI0
aI0
aI0
aI0
aI0
aI0
aI0
aI0
aI0
aI0
aI0
aI0
aI0
aI0
aI0
aI0
aI0
aI0
aI0
aI0
aI0
aI0
aI0
aI0
aI0
aI0
aI0
aI0
aI0
aI0
aI0
aI0
aI0
aI0
aI0
aI0
aI0
aI0
aI0
aI0
aI0
aI0
aI0
aI0
aI0
aI0
aI0
aI0
aI0
aI0
aI0
aI0
aI0
aI0
aI0
aI0
aI0
aI0
aI0
aI0
aI0
aI0
aI0
aI0
aI0
aI0
aI0
aI0
aI0
aI0
aI0
aI0
aI0
aI0
aI0
aI0
aI0
aI0
aI0
aI0
aI0
aI0
aI0
aI0
aI0
aI0
aI0
aI0
aI0
aI0
aI0
aI0
aI0
aa(lp17
(lp18
I0
aI0
aI0
aI0
aa(lp19
I0
aI0
aI0
aI0
aa(lp20
I0
aI0
aI0
aI0
aa(lp21
I0
aI0
aI0
aI0
aa(lp22
I0
aI0
aI0
aI0
aa(lp23
I0
aI0
aI0
aI0
aa(lp24
I0
aI0
aI0
aI0
aa(lp25
I0
aI0
aI0
aI0
aa(lp26
I0
aI0
aI0
aI0
aa(lp27
I0
aI0
aI0
aI0
aa(lp28
I0
aI0
aI0
aI0
aa(lp29
I0
aI0
aI0
aI0
aa(lp30
I0
aI0
aI0
aI0
aa(lp31
I0
aI0
aI0
aI0
aa(lp32
I0
aI0
aI0
aI0
aa(lp33
I0
aI0
aI0
aI0
aa(lp34
I0
aI0
aI0
aI0
aa(lp35
I0
aI0
aI0
aI0
aa(lp36
I0
aI0
aI0
aI0
aa(lp37
I0
aI0
aI0
aI0
aa(lp38
I0
aI0
aI0
aI0
aa(lp39
I0
aI0
aI0
aI0
aa(lp40
I0
aI0
aI0
aI0
aa(lp41
I0
aI0
aI0
aI0
aa(lp42
I0
aI0
aI0
aI0
aa(lp43
I0
aI0
aI0
aI0
aa(lp44
I0
aI0
aI0
aI0
aa(lp45
I0
aI0
aI0
aI0
aa(lp46
I0
aI0
aI0
aI0
aa(lp47
I0
aI0
aI0
aI0
aa(lp48
I0
aI0
aI0
aI0
aa(lp49
I0
aI0
aI0
aI0
aa(lp50
I0
aI0
aI0
aI0
aa(lp51
I0
aI0
aI0
aI0
aa(lp52
I0
aI0
aI0
aI0
aa(lp53
I0
aI0
aI0
aI0
aa(lp54
I0
aI0
aI0
aI0
aa(lp55
I0
aI0
aI0
aI0
aa(lp56
I0
aI0
aI0
aI0
aa(lp57
I0
aI0
aI0
aI0
aa(lp58
I0
aI0
aI0
aI0
aa(lp59
I0
aI0
aI0
aI0
aa(lp60
I0
aI0
aI0
aI0
aa(lp61
I0
aI0
aI0
aI0
aa(lp62
I0
aI0
aI0
aI0
aa(lp63
I0
aI0
aI0
aI0
aa(lp64
I0
aI0
aI0
aI0
aa(lp65
I0
aI0
aI0
aI0
aa(lp66
I0
aI0
aI0
aI0
aa(lp67
I0
aI0
aI0
aI0
aa(lp68
I0
aI0
aI0
aI0
aa(lp69
I0
aI0
aI0
aI0
aa(lp70
I0
aI0
aI0
aI0
aa(lp71
I0
aI0
aI0
aI0
aa(lp72
I0
aI0
aI0
aI0
aa(lp73
I0
aI0
aI0
aI0
aa(lp74
I0
aI0
aI0
aI0
aa(lp75
I0
aI0
aI0
aI0
aa(lp76
I0
aI0
aI0
aI0
aa(lp77
I0
aI0
aI0
aI0
aa(lp78
I0
aI0
aI0
aI0
aa(lp79
I0
aI0
aI0
aI0
aa(lp80
I0
aI0
aI0
aI0
aa(lp81
I0
aI0
aI0
aI0
aa(lp82
I0
aI0
aI0
aI0
aa(lp83
I0
aI0
aI0
aI0
aa(lp84
I0
aI0
aI0
aI0
aa(lp85
I0
aI0
aI0
aI0
aa(lp86
I0
aI0
aI0
aI0
aa(lp87
I0
aI0
aI0
aI0
aa(lp88
I0
aI0
aI0
aI0
aa(lp89
I0
aI0
aI0
aI0
aa(lp90
I0
aI0
aI0
aI0
aa(lp91
I0
aI0
aI0
aI0
aa(lp92
I0
aI0
aI0
aI0
aa(lp93
I0
aI0
aI0
aI0
aa(lp94
I0
aI0
aI0
aI0
aa(lp95
I0
aI0
aI0
aI0
aa(lp96
I0
aI0
aI0
aI0
aa(lp97
I0
aI0
aI0
aI0
aa(lp98
I0
aI0
aI0
aI0
aa(lp99
I0
aI0
aI0
aI0
aa(lp100
I0
aI0
aI0
aI0
aa(lp101
I0
aI0
aI0
aI0
aa(lp102
I0
aI0
aI0
aI0
aa(lp103
I0
aI0
aI0
aI0
aa(lp104
I0
aI0
aI0
aI0
aa(lp105
I0
aI0
aI0
aI0
aa(lp106
I0
aI0
aI0
aI0
aa(lp107
I0
aI0
aI0
aI0
aa(lp108
I0
aI0
aI0
aI0
aa(lp109
I0
aI0
aI0
aI0
aa(lp110
I0
aI0
aI0
aI0
aa(lp111
I0
aI0
aI0
aI0
aa(lp112
I0
aI0
aI0
aI0
aa(lp113
I0
aI0
aI0
aI0
aa(lp114
I0
aI0
aI0
aI0
aa(lp115
I0
aI0
aI0
aI0
aa(lp116
I0
aI0
aI0
aI0
aa(lp117
I0
aI0
aI0
aI0
aa(lp118
I0
aI0
aI0
aI0
aa(lp119
I0
aI0
aI0
aI0
aa(lp120
I0
aI0
aI0
aI0
aa(lp121
I0
aI0
aI0
aI0
aa(lp122
I0
aI0
aI0
aI0
aa(lp123
I0
aI0
aI0
aI0
aa(lp124
I0
aI0
aI0
aI0
aa(lp125
I0
aI0
aI0
aI0
aa(lp126
I0
aI0
aI0
aI0
aa(lp127
I0
aI0
aI0
aI0
aa(lp128
I0
aI0
aI0
aI0
aa(lp129
I0
aI0
aI0
aI0
aa(lp130
I0
aI0
aI0
aI0
aa(lp131
I0
aI0
aI0
aI0
aa(lp132
I0
aI0
aI0
aI0
aa(lp133
I0
aI0
aI0
aI0
aa(lp134
I0
aI0
aI0
aI0
aa(lp135
I0
aI0
aI0
aI0
aa(lp136
I0
aI0
aI0
aI0
aa(lp137
I0
aI0
aI0
aI0
aa(lp138
I0
aI0
aI0
aI0
aa(lp139
I0
aI0
aI0
aI0
aa(lp140
I0
aI0
aI0
aI0
aa(lp141
I0
aI0
aI0
aI0
aa(lp142
I0
aI0
aI0
aI0
aa(lp143
I0
aI0
aI0
aI0
aa(lp144
I0
aI0
aI0
aI0
aa(lp145
I0
aI0
aI0
aI0
aa(lp146
I0
aI0
aI0
aI0
aa(lp147
I0
aI0
aI0
aI0
aa(lp148
I0
aI0
aI0
aI0
aa(lp149
I0
aI0
aI0
aI0
aa(lp150
I0
aI0
aI0
aI0
aa(lp151
I0
aI0
aI0
aI0
aa(lp152
I0
aI0
aI0
aI0
aa(lp153
I0
aI0
aI0
aI0
aa(lp154
I0
aI0
aI0
aI0
aa(lp155
I0
aI0
aI0
aI0
aa(lp156
I0
aI0
aI0
aI0
aa(lp157
I0
aI0
aI0
aI0
aa(lp158
I0
aI0
aI0
aI0
aa(lp159
I0
aI0
aI0
aI0
aa(lp160
I0
aI0
aI0
aI0
aa(lp161
I0
aI0
aI0
aI0
aa(lp162
I0
aI0
aI0
aI0
aa(lp163
I0
aI0
aI0
aI0
aa(lp164
I0
aI0
aI0
aI0
aa(lp165
I0
aI0
aI0
aI0
aa(lp166
I0
aI0
aI0
aI0
aa(lp167
I0
aI0
aI0
aI0
aa(lp168
I0
aI0
aI0
aI0
aa(lp169
I0
aI0
aI0
aI0
aa(lp170
I0
aI0
aI0
aI0
aa(lp171
I0
aI0
aI0
aI0
aa(lp172
I0
aI0
aI0
aI0
aa(lp173
I0
aI0
aI0
aI0
aa(lp174
I0
aI0
aI0
aI0
aa(lp175
I0
aI0
aI0
aI0
aa(lp176
I0
aI0
aI0
aI0
aa(lp177
I0
aI0
aI0
aI0
aa(lp178
I0
aI0
aI0
aI0
aa(lp179
I0
aI0
aI0
aI0
aa(lp180
I0
aI0
aI0
aI0
aa(lp181
I0
aI0
aI0
aI0
aa(lp182
I0
aI0
aI0
aI0
aa(lp183
I0
aI0
aI0
aI0
aa(lp184
I0
aI0
aI0
aI0
aa(lp185
I0
aI0
aI0
aI0
aa(lp186
I0
aI0
aI0
aI0
aa(lp187
I0
aI0
aI0
aI0
aa(lp188
I0
aI0
aI0
aI0
aa(lp189
I0
aI0
aI0
aI0
aa(lp190
I0
aI0
aI0
aI0
aa(lp191
I0
aI0
aI0
aI0
aa(lp192
I0
aI0
aI0
aI0
aa(lp193
I0
aI0
aI0
aI0
aa(lp194
I0
aI0
aI0
aI0
aa(lp195
I0
aI0
aI0
aI0
aa(lp196
I0
aI0
aI0
aI0
aa(lp197
I0
aI0
aI0
aI0
aa(lp198
I0
aI0
aI0
aI0
aa(lp199
I0
aI0
aI0
aI0
aa(lp200
I0
aI0
aI0
aI0
aa(lp201
I0
aI0
aI0
aI0
aa(lp202
I0
aI0
aI0
aI0
aa(lp203
I0
aI0
aI0
aI0
aa(lp204
I0
aI0
aI0
aI0
aa(lp205
I0
aI0
aI0
aI0
aa(lp206
I0
aI0
aI0
aI0
aa(lp207
I0
aI0
aI0
aI0
aa(lp208
I0
aI0
aI0
aI0
aa(lp209
I0
aI0
aI0
aI0
aa(lp210
I0
aI0
aI0
aI0
aa(lp211
I0
aI0
aI0
aI0
aa(lp212
I0
aI0
aI0
aI0
aa(lp213
I0
aI0
aI0
aI0
aa(lp214
I0
aI0
aI0
aI0
aa(lp215
I0
aI0
aI0
aI0
aa(lp216
I0
aI0
aI0
aI0
aa(lp217
I0
aI0
aI0
aI0
aa(lp218
I0
aI0
aI0
aI0
aa(lp219
I0
aI0
aI0
aI0
aa(lp220
I0
aI0
aI0
aI0
aa(lp221
I0
aI0
aI0
aI0
aa(lp222
I0
aI0
aI0
aI0
aa(lp223
I0
aI0
aI0
aI0
aa(lp224
I0
aI0
aI0
aI0
aa(lp225
I0
aI0
aI0
aI0
aa(lp226
I0
aI0
aI0
aI0
aa(lp227
I0
aI0
aI0
aI0
aa(lp228
I0
aI0
aI0
aI0
aa(lp229
I0
aI0
aI0
aI0
aa(lp230
I0
aI0
aI0
aI0
aa(lp231
I0
aI0
aI0
aI0
aa(lp232
I0
aI0
aI0
aI0
aa(lp233
I0
aI0
aI0
aI0
aaa(lp234
(lp235
I0
aI0
aI0
aI0
aa(lp236
I0
aI0
aI0
aI0
aa(lp237
I0
aI0
aI0
aI0
aa(lp238
I0
aI0
aI0
aI0
aa(lp239
I0
aI0
aI0
aI0
aa(lp240
I0
aI0
aI0
aI0
aa(lp241
I0
aI0
aI0
aI0
aa(lp242
I0
aI0
aI0
aI0
aa(lp243
I0
aI0
aI0
aI0
aa(lp244
I0
aI0
aI0
aI0
aa(lp245
I0
aI0
aI0
aI0
aa(lp246
I0
aI0
aI0
aI0
aa(lp247
I0
aI0
aI0
aI0
aa(lp248
I0
aI0
aI0
aI0
aa(lp249
I0
aI0
aI0
aI0
aa(lp250
I0
aI0
aI0
aI0
aa(lp251
I0
aI0
aI0
aI0
aa(lp252
I0
aI0
aI0
aI0
aa(lp253
I0
aI0
aI0
aI0
aa(lp254
I0
aI0
aI0
aI0
aa(lp255
I0
aI0
aI0
aI0
aa(lp256
I0
aI0
aI0
aI0
aa(lp257
I0
aI0
aI0
aI0
aa(lp258
I0
aI0
aI0
aI0
aa(lp259
I0
aI0
aI0
aI0
aa(lp260
I0
aI0
aI0
aI0
aa(lp261
I0
aI0
aI0
aI0
aa(lp262
I0
aI0
aI0
aI0
aa(lp263
I0
aI0
aI0
aI0
aa(lp264
I0
aI0
aI0
aI0
aa(lp265
I0
aI0
aI0
aI0
aa(lp266
I0
aI0
aI0
aI0
aa(lp267
I0
aI0
aI0
aI0
aa(lp268
I0
aI0
aI0
aI0
aa(lp269
I0
aI0
aI0
aI0
aa(lp270
I0
aI0
aI0
aI0
aa(lp271
I0
aI0
aI0
aI0
aa(lp272
I0
aI0
aI0
aI0
aa(lp273
I0
aI0
aI0
aI0
aa(lp274
I0
aI0
aI0
aI0
aa(lp275
I0
aI0
aI0
aI0
aa(lp276
I0
aI0
aI0
aI0
aa(lp277
I0
aI0
aI0
aI0
aa(lp278
I0
aI0
aI0
aI0
aa(lp279
I0
aI0
aI0
aI0
aa(lp280
I0
aI0
aI0
aI0
aa(lp281
I0
aI0
aI0
aI0
aa(lp282
I0
aI0
aI0
aI0
aa(lp283
I0
aI0
aI0
aI0
aa(lp284
I0
aI0
aI0
aI0
aa(lp285
I0
aI0
aI0
aI0
aa(lp286
I0
aI0
aI0
aI0
aa(lp287
I0
aI0
aI0
aI0
aa(lp288
I0
aI0
aI0
aI0
aa(lp289
I0
aI0
aI0
aI0
aa(lp290
I0
aI0
aI0
aI0
aa(lp291
I0
aI0
aI0
aI0
aa(lp292
I0
aI0
aI0
aI0
aa(lp293
I0
aI0
aI0
aI0
aa(lp294
I0
aI0
aI0
aI0
aa(lp295
I0
aI0
aI0
aI0
aa(lp296
I0
aI0
aI0
aI0
aa(lp297
I0
aI0
aI0
aI0
aa(lp298
I0
aI0
aI0
aI0
aa(lp299
I0
aI0
aI0
aI0
aa(lp300
I0
aI0
aI0
aI0
aa(lp301
I0
aI0
aI0
aI0
aa(lp302
I0
aI0
aI0
aI0
aa(lp303
I0
aI0
aI0
aI0
aa(lp304
I0
aI0
aI0
aI0
aa(lp305
I0
aI0
aI0
aI0
aa(lp306
I0
aI0
aI0
aI0
aa(lp307
I0
aI0
aI0
aI0
aa(lp308
I0
aI0
aI0
aI0
aa(lp309
I0
aI0
aI0
aI0
aa(lp310
I0
aI0
aI0
aI0
aa(lp311
I0
aI0
aI0
aI0
aa(lp312
I0
aI0
aI0
aI0
aa(lp313
I0
aI0
aI0
aI0
aa(lp314
I0
aI0
aI0
aI0
aa(lp315
I0
aI0
aI0
aI0
aa(lp316
I0
aI0
aI0
aI0
aa(lp317
I0
aI0
aI0
aI0
aa(lp318
I0
aI0
aI0
aI0
aa(lp319
I0
aI0
aI0
aI0
aa(lp320
I0
aI0
aI0
aI0
aa(lp321
I0
aI0
aI0
aI0
aa(lp322
I0
aI0
aI0
aI0
aa(lp323
I0
aI0
aI0
aI0
aa(lp324
I0
aI0
aI0
aI0
aa(lp325
I0
aI0
aI0
aI0
aa(lp326
I0
aI0
aI0
aI0
aa(lp327
I0
aI0
aI0
aI0
aa(lp328
I0
aI0
aI0
aI0
aa(lp329
I0
aI0
aI0
aI0
aa(lp330
I0
aI0
aI0
aI0
aa(lp331
I0
aI0
aI0
aI0
aa(lp332
I0
aI0
aI0
aI0
aa(lp333
I0
aI0
aI0
aI0
aa(lp334
I0
aI0
aI0
aI0
aa(lp335
I0
aI0
aI0
aI0
aa(lp336
I0
aI0
aI0
aI0
aa(lp337
I0
aI0
aI0
aI0
aa(lp338
I0
aI0
aI0
aI0
aa(lp339
I0
aI0
aI0
aI0
aa(lp340
I0
aI0
aI0
aI0
aa(lp341
I0
aI0
aI0
aI0
aa(lp342
I0
aI0
aI0
aI0
aa(lp343
I0
aI0
aI0
aI0
aa(lp344
I0
aI0
aI0
aI0
aa(lp345
I0
aI0
aI0
aI0
aa(lp346
I0
aI0
aI0
aI0
aa(lp347
I0
aI0
aI0
aI0
aa(lp348
I0
aI0
aI0
aI0
aa(lp349
I0
aI0
aI0
aI0
aa(lp350
I0
aI0
aI0
aI0
aa(lp351
I0
aI0
aI0
aI0
aa(lp352
I0
aI0
aI0
aI0
aa(lp353
I0
aI0
aI0
aI0
aa(lp354
I0
aI0
aI0
aI0
aa(lp355
I0
aI0
aI0
aI0
aa(lp356
I0
aI0
aI0
aI0
aa(lp357
I0
aI0
aI0
aI0
aa(lp358
I0
aI0
aI0
aI0
aa(lp359
I0
aI0
aI0
aI0
aa(lp360
I0
aI0
aI0
aI0
aa(lp361
I0
aI0
aI0
aI0
aa(lp362
I0
aI0
aI0
aI0
aa(lp363
I0
aI0
aI0
aI0
aa(lp364
I0
aI0
aI0
aI0
aa(lp365
I0
aI0
aI0
aI0
aa(lp366
I0
aI0
aI0
aI0
aa(lp367
I0
aI0
aI0
aI0
aa(lp368
I0
aI0
aI0
aI0
aa(lp369
I0
aI0
aI0
aI0
aa(lp370
I0
aI0
aI0
aI0
aa(lp371
I0
aI0
aI0
aI0
aa(lp372
I0
aI0
aI0
aI0
aa(lp373
I0
aI0
aI0
aI0
aa(lp374
I0
aI0
aI0
aI0
aa(lp375
I0
aI0
aI0
aI0
aa(lp376
I0
aI0
aI0
aI0
aa(lp377
I0
aI0
aI0
aI0
aa(lp378
I0
aI0
aI0
aI0
aa(lp379
I0
aI0
aI0
aI0
aa(lp380
I0
aI0
aI0
aI0
aa(lp381
I0
aI0
aI0
aI0
aa(lp382
I0
aI0
aI0
aI0
aa(lp383
I0
aI0
aI0
aI0
aa(lp384
I0
aI0
aI0
aI0
aa(lp385
I0
aI0
aI0
aI0
aa(lp386
I0
aI0
aI0
aI0
aa(lp387
I0
aI0
aI0
aI0
aa(lp388
I0
aI0
aI0
aI0
aa(lp389
I0
aI0
aI0
aI0
aa(lp390
I0
aI0
aI0
aI0
aa(lp391
I0
aI0
aI0
aI0
aa(lp392
I0
aI0
aI0
aI0
aa(lp393
I0
aI0
aI0
aI0
aa(lp394
I0
aI0
aI0
aI0
aa(lp395
I0
aI0
aI0
aI0
aa(lp396
I0
aI0
aI0
aI0
aa(lp397
I0
aI0
aI0
aI0
aa(lp398
I0
aI0
aI0
aI0
aa(lp399
I0
aI0
aI0
aI0
aa(lp400
I0
aI0
aI0
aI0
aa(lp401
I0
aI0
aI0
aI0
aa(lp402
I0
aI0
aI0
aI0
aa(lp403
I0
aI0
aI0
aI0
aa(lp404
I0
aI0
aI0
aI0
aa(lp405
I0
aI0
aI0
aI0
aa(lp406
I0
aI0
aI0
aI0
aa(lp407
I0
aI0
aI0
aI0
aa(lp408
I0
aI0
aI0
aI0
aa(lp409
I0
aI0
aI0
aI0
aa(lp410
I0
aI0
aI0
aI0
aa(lp411
I0
aI0
aI0
aI0
aa(lp412
I0
aI0
aI0
aI0
aa(lp413
I0
aI0
aI0
aI0
aa(lp414
I0
aI0
aI0
aI0
aa(lp415
I0
aI0
aI0
aI0
aa(lp416
I0
aI0
aI0
aI0
aa(lp417
I0
aI0
aI0
aI0
aa(lp418
I0
aI0
aI0
aI0
aa(lp419
I0
aI0
aI0
aI0
aa(lp420
I0
aI0
aI0
aI0
aa(lp421
I0
aI0
aI0
aI0
aa(lp422
I0
aI0
aI0
aI0
aa(lp423
I0
aI0
aI0
aI0
aa(lp424
I0
aI0
aI0
aI0
aa(lp425
I0
aI0
aI0
aI0
aa(lp426
I0
aI0
aI0
aI0
aa(lp427
I0
aI0
aI0
aI0
aa(lp428
I0
aI0
aI0
aI0
aa(lp429
I0
aI0
aI0
aI0
aa(lp430
I0
aI0
aI0
aI0
aa(lp431
I0
aI0
aI0
aI0
aa(lp432
I0
aI0
aI0
aI0
aa(lp433
I0
aI0
aI0
aI0
aa(lp434
I0
aI0
aI0
aI0
aa(lp435
I0
aI0
aI0
aI0
aa(lp436
I0
aI0
aI0
aI0
aa(lp437
I0
aI0
aI0
aI0
aa(lp438
I0
aI0
aI0
aI0
aa(lp439
I0
aI0
aI0
aI0
aa(lp440
I0
aI0
aI0
aI0
aa(lp441
I0
aI0
aI0
aI0
aa(lp442
I0
aI0
aI0
aI0
aa(lp443
I0
aI0
aI0
aI0
aa(lp444
I0
aI0
aI0
aI0
aa(lp445
I0
aI0
aI0
aI0
aa(lp446
I0
aI0
aI0
aI0
aa(lp447
I0
aI0
aI0
aI0
aa(lp448
I0
aI0
aI0
aI0
aa(lp449
I0
aI0
aI0
aI0
aa(lp450
I0
aI0
aI0
aI0
aaa(lp451
(lp452
I0
aI0
aI0
aI0
aa(lp453
I0
aI0
aI0
aI0
aa(lp454
I0
aI0
aI0
aI0
aa(lp455
I0
aI0
aI0
aI0
aa(lp456
I0
aI0
aI0
aI0
aa(lp457
I0
aI0
aI0
aI0
aa(lp458
I0
aI0
aI0
aI0
aa(lp459
I0
aI0
aI0
aI0
aa(lp460
I0
aI0
aI0
aI0
aa(lp461
I0
aI0
aI0
aI0
aa(lp462
I0
aI0
aI0
aI0
aa(lp463
I0
aI0
aI0
aI0
aa(lp464
I0
aI0
aI0
aI0
aa(lp465
I0
aI0
aI0
aI0
aa(lp466
I0
aI0
aI0
aI0
aa(lp467
I0
aI0
aI0
aI0
aa(lp468
I0
aI0
aI0
aI0
aa(lp469
I0
aI0
aI0
aI0
aa(lp470
I0
aI0
aI0
aI0
aa(lp471
I0
aI0
aI0
aI0
aa(lp472
I0
aI0
aI0
aI0
aa(lp473
I0
aI0
aI0
aI0
aa(lp474
I0
aI0
aI0
aI0
aa(lp475
I0
aI0
aI0
aI0
aa(lp476
I0
aI0
aI0
aI0
aa(lp477
I0
aI0
aI0
aI0
aa(lp478
I0
aI0
aI0
aI0
aa(lp479
I0
aI0
aI0
aI0
aa(lp480
I0
aI0
aI0
aI0
aa(lp481
I0
aI0
aI0
aI0
aa(lp482
I0
aI0
aI0
aI0
aa(lp483
I0
aI0
aI0
aI0
aa(lp484
I0
aI0
aI0
aI0
aa(lp485
I0
aI0
aI0
aI0
aa(lp486
I0
aI0
aI0
aI0
aa(lp487
I0
aI0
aI0
aI0
aa(lp488
I0
aI0
aI0
aI0
aa(lp489
I0
aI0
aI0
aI0
aa(lp490
I0
aI0
aI0
aI0
aa(lp491
I0
aI0
aI0
aI0
aa(lp492
I0
aI0
aI0
aI0
aa(lp493
I0
aI0
aI0
aI0
aa(lp494
I0
aI0
aI0
aI0
aa(lp495
I0
aI0
aI0
aI0
aa(lp496
I0
aI0
aI0
aI0
aa(lp497
I0
aI0
aI0
aI0
aa(lp498
I0
aI0
aI0
aI0
aa(lp499
I0
aI0
aI0
aI0
aa(lp500
I0
aI0
aI0
aI0
aa(lp501
I0
aI0
aI0
aI0
aa(lp502
I0
aI0
aI0
aI0
aa(lp503
I0
aI0
aI0
aI0
aa(lp504
I0
aI0
aI0
aI0
aa(lp505
I0
aI0
aI0
aI0
aa(lp506
I0
aI0
aI0
aI0
aa(lp507
I0
aI0
aI0
aI0
aa(lp508
I0
aI0
aI0
aI0
aa(lp509
I0
aI0
aI0
aI0
aa(lp510
I0
aI0
aI0
aI0
aa(lp511
I0
aI0
aI0
aI0
aa(lp512
I0
aI0
aI0
aI0
aa(lp513
I0
aI0
aI0
aI0
aa(lp514
I0
aI0
aI0
aI0
aa(lp515
I0
aI0
aI0
aI0
aa(lp516
I0
aI0
aI0
aI0
aa(lp517
I0
aI0
aI0
aI0
aa(lp518
I0
aI0
aI0
aI0
aa(lp519
I0
aI0
aI0
aI0
aa(lp520
I0
aI0
aI0
aI0
aa(lp521
I0
aI0
aI0
aI0
aa(lp522
I0
aI0
aI0
aI0
aa(lp523
I0
aI0
aI0
aI0
aa(lp524
I0
aI0
aI0
aI0
aa(lp525
I0
aI0
aI0
aI0
aa(lp526
I0
aI0
aI0
aI0
aa(lp527
I0
aI0
aI0
aI0
aa(lp528
I0
aI0
aI0
aI0
aa(lp529
I0
aI0
aI0
aI0
aa(lp530
I0
aI0
aI0
aI0
aa(lp531
I0
aI0
aI0
aI0
aa(lp532
I0
aI0
aI0
aI0
aa(lp533
I0
aI0
aI0
aI0
aa(lp534
I0
aI0
aI0
aI0
aa(lp535
I0
aI0
aI0
aI0
aa(lp536
I0
aI0
aI0
aI0
aa(lp537
I0
aI0
aI0
aI0
aa(lp538
I0
aI0
aI0
aI0
aa(lp539
I0
aI0
aI0
aI0
aa(lp540
I0
aI0
aI0
aI0
aa(lp541
I0
aI0
aI0
aI0
aa(lp542
I0
aI0
aI0
aI0
aa(lp543
I0
aI0
aI0
aI0
aa(lp544
I0
aI0
aI0
aI0
aa(lp545
I0
aI0
aI0
aI0
aa(lp546
I0
aI0
aI0
aI0
aa(lp547
I0
aI0
aI0
aI0
aa(lp548
I0
aI0
aI0
aI0
aa(lp549
I0
aI0
aI0
aI0
aa(lp550
I0
aI0
aI0
aI0
aa(lp551
I0
aI0
aI0
aI0
aa(lp552
I0
aI0
aI0
aI0
aa(lp553
I0
aI0
aI0
aI0
aa(lp554
I0
aI0
aI0
aI0
aa(lp555
I0
aI0
aI0
aI0
aa(lp556
I0
aI0
aI0
aI0
aa(lp557
I0
aI0
aI0
aI0
aa(lp558
I0
aI0
aI0
aI0
aa(lp559
I0
aI0
aI0
aI0
aa(lp560
I0
aI0
aI0
aI0
aa(lp561
I0
aI0
aI0
aI0
aa(lp562
I0
aI0
aI0
aI0
aa(lp563
I0
aI0
aI0
aI0
aa(lp564
I0
aI0
aI0
aI0
aa(lp565
I0
aI0
aI0
aI0
aa(lp566
I0
aI0
aI0
aI0
aa(lp567
I0
aI0
aI0
aI0
aa(lp568
I0
aI0
aI0
aI0
aa(lp569
I0
aI0
aI0
aI0
aa(lp570
I0
aI0
aI0
aI0
aa(lp571
I0
aI0
aI0
aI0
aa(lp572
I0
aI0
aI0
aI0
aa(lp573
I0
aI0
aI0
aI0
aa(lp574
I0
aI0
aI0
aI0
aa(lp575
I0
aI0
aI0
aI0
aa(lp576
I0
aI0
aI0
aI0
aa(lp577
I0
aI0
aI0
aI0
aa(lp578
I0
aI0
aI0
aI0
aa(lp579
I0
aI0
aI0
aI0
aa(lp580
I0
aI0
aI0
aI0
aa(lp581
I0
aI0
aI0
aI0
aa(lp582
I0
aI0
aI0
aI0
aa(lp583
I0
aI0
aI0
aI0
aa(lp584
I0
aI0
aI0
aI0
aa(lp585
I0
aI0
aI0
aI0
aa(lp586
I0
aI0
aI0
aI0
aa(lp587
I0
aI0
aI0
aI0
aa(lp588
I0
aI0
aI0
aI0
aa(lp589
I0
aI0
aI0
aI0
aa(lp590
I0
aI0
aI0
aI0
aa(lp591
I0
aI0
aI0
aI0
aa(lp592
I0
aI0
aI0
aI0
aa(lp593
I0
aI0
aI0
aI0
aa(lp594
I0
aI0
aI0
aI0
aa(lp595
I0
aI0
aI0
aI0
aa(lp596
I0
aI0
aI0
aI0
aa(lp597
I0
aI0
aI0
aI0
aa(lp598
I0
aI0
aI0
aI0
aa(lp599
I0
aI0
aI0
aI0
aa(lp600
I0
aI0
aI0
aI0
aa(lp601
I0
aI0
aI0
aI0
aa(lp602
I0
aI0
aI0
aI0
aa(lp603
I0
aI0
aI0
aI0
aa(lp604
I0
aI0
aI0
aI0
aa(lp605
I0
aI0
aI0
aI0
aa(lp606
I0
aI0
aI0
aI0
aa(lp607
I0
aI0
aI0
aI0
aa(lp608
I0
aI0
aI0
aI0
aa(lp609
I0
aI0
aI0
aI0
aa(lp610
I0
aI0
aI0
aI0
aa(lp611
I0
aI0
aI0
aI0
aa(lp612
I0
aI0
aI0
aI0
aa(lp613
I0
aI0
aI0
aI0
aa(lp614
I0
aI0
aI0
aI0
aa(lp615
I0
aI0
aI0
aI0
aa(lp616
I0
aI0
aI0
aI0
aa(lp617
I0
aI0
aI0
aI0
aa(lp618
I0
aI0
aI0
aI0
aa(lp619
I0
aI0
aI0
aI0
aa(lp620
I0
aI0
aI0
aI0
aa(lp621
I0
aI0
aI0
aI0
aa(lp622
I0
aI0
aI0
aI0
aa(lp623
I0
aI0
aI0
aI0
aa(lp624
I0
aI0
aI0
aI0
aa(lp625
I0
aI0
aI0
aI0
aa(lp626
I0
aI0
aI0
aI0
aa(lp627
I0
aI0
aI0
aI0
aa(lp628
I0
aI0
aI0
aI0
aa(lp629
I0
aI0
aI0
aI0
aa(lp630
I0
aI0
aI0
aI0
aa(lp631
I0
aI0
aI0
aI0
aa(lp632
I0
aI0
aI0
aI0
aa(lp633
I0
aI0
aI0
aI0
aa(lp634
I0
aI0
aI0
aI0
aa(lp635
I0
aI0
aI0
aI0
aa(lp636
I0
aI0
aI0
aI0
aa(lp637
I0
aI0
aI0
aI0
aa(lp638
I0
aI0
aI0
aI0
aa(lp639
I0
aI0
aI0
aI0
aa(lp640
I0
aI0
aI0
aI0
aa(lp641
I0
aI0
aI0
aI0
aa(lp642
I0
aI0
aI0
aI0
aa(lp643
I0
aI0
aI0
aI0
aa(lp644
I0
aI0
aI0
aI0
aa(lp645
I0
aI0
aI0
aI0
aa(lp646
I0
aI0
aI0
aI0
aa(lp647
I0
aI0
aI0
aI0
aa(lp648
I0
aI0
aI0
aI0
aa(lp649
I0
aI0
aI0
aI0
aa(lp650
I0
aI0
aI0
aI0
aa(lp651
I0
aI0
aI0
aI0
aa(lp652
I0
aI0
aI0
aI0
aa(lp653
I0
aI0
aI0
aI0
aa(lp654
I0
aI0
aI0
aI0
aa(lp655
I0
aI0
aI0
aI0
aa(lp656
I0
aI0
aI0
aI0
aa(lp657
I0
aI0
aI0
aI0
aa(lp658
I0
aI0
aI0
aI0
aa(lp659
I0
aI0
aI0
aI0
aa(lp660
I0
aI0
aI0
aI0
aa(lp661
I0
aI0
aI0
aI0
aa(lp662
I0
aI0
aI0
aI0
aa(lp663
I0
aI0
aI0
aI0
aa(lp664
I0
aI0
aI0
aI0
aa(lp665
I0
aI0
aI0
aI0
aa(lp666
I0
aI0
aI0
aI0
aa(lp667
I0
aI0
aI0
aI0
aaa(lp668
(lp669
I0
aI0
aI0
aI0
aa(lp670
I0
aI0
aI0
aI0
aa(lp671
I0
aI0
aI0
aI0
aa(lp672
I0
aI0
aI0
aI0
aa(lp673
I0
aI0
aI0
aI0
aa(lp674
I0
aI0
aI0
aI0
aa(lp675
I0
aI0
aI0
aI0
aa(lp676
I0
aI0
aI0
aI0
aa(lp677
I0
aI0
aI0
aI0
aa(lp678
I0
aI0
aI0
aI0
aa(lp679
I0
aI0
aI0
aI0
aa(lp680
I0
aI0
aI0
aI0
aa(lp681
I0
aI0
aI0
aI0
aa(lp682
I0
aI0
aI0
aI0
aa(lp683
I0
aI0
aI0
aI0
aa(lp684
I0
aI0
aI0
aI0
aa(lp685
I0
aI0
aI0
aI0
aa(lp686
I0
aI0
aI0
aI0
aa(lp687
I0
aI0
aI0
aI0
aa(lp688
I0
aI0
aI0
aI0
aa(lp689
I0
aI0
aI0
aI0
aa(lp690
I0
aI0
aI0
aI0
aa(lp691
I0
aI0
aI0
aI0
aa(lp692
I0
aI0
aI0
aI0
aa(lp693
I0
aI0
aI0
aI0
aa(lp694
I0
aI0
aI0
aI0
aa(lp695
I0
aI0
aI0
aI0
aa(lp696
I0
aI0
aI0
aI0
aa(lp697
I0
aI0
aI0
aI0
aa(lp698
I0
aI0
aI0
aI0
aa(lp699
I0
aI0
aI0
aI0
aa(lp700
I0
aI0
aI0
aI0
aa(lp701
I0
aI0
aI0
aI0
aa(lp702
I0
aI0
aI0
aI0
aa(lp703
I0
aI0
aI0
aI0
aa(lp704
I0
aI0
aI0
aI0
aa(lp705
I0
aI0
aI0
aI0
aa(lp706
I0
aI0
aI0
aI0
aa(lp707
I0
aI0
aI0
aI0
aa(lp708
I0
aI0
aI0
aI0
aa(lp709
I0
aI0
aI0
aI0
aa(lp710
I0
aI0
aI0
aI0
aa(lp711
I0
aI0
aI0
aI0
aa(lp712
I0
aI0
aI0
aI0
aa(lp713
I0
aI0
aI0
aI0
aa(lp714
I0
aI0
aI0
aI0
aa(lp715
I0
aI0
aI0
aI0
aa(lp716
I0
aI0
aI0
aI0
aa(lp717
I0
aI0
aI0
aI0
aa(lp718
I0
aI0
aI0
aI0
aa(lp719
I0
aI0
aI0
aI0
aa(lp720
I0
aI0
aI0
aI0
aa(lp721
I0
aI0
aI0
aI0
aa(lp722
I0
aI0
aI0
aI0
aa(lp723
I0
aI0
aI0
aI0
aa(lp724
I0
aI0
aI0
aI0
aa(lp725
I0
aI0
aI0
aI0
aa(lp726
I0
aI0
aI0
aI0
aa(lp727
I0
aI0
aI0
aI0
aa(lp728
I0
aI0
aI0
aI0
aa(lp729
I0
aI0
aI0
aI0
aa(lp730
I0
aI0
aI0
aI0
aa(lp731
I0
aI0
aI0
aI0
aa(lp732
I0
aI0
aI0
aI0
aa(lp733
I0
aI0
aI0
aI0
aa(lp734
I0
aI0
aI0
aI0
aa(lp735
I0
aI0
aI0
aI0
aa(lp736
I0
aI0
aI0
aI0
aa(lp737
I0
aI0
aI0
aI0
aa(lp738
I0
aI0
aI0
aI0
aa(lp739
I0
aI0
aI0
aI0
aa(lp740
I0
aI0
aI0
aI0
aa(lp741
I0
aI0
aI0
aI0
aa(lp742
I0
aI0
aI0
aI0
aa(lp743
I0
aI0
aI0
aI0
aa(lp744
I0
aI0
aI0
aI0
aa(lp745
I0
aI0
aI0
aI0
aa(lp746
I0
aI0
aI0
aI0
aa(lp747
I0
aI0
aI0
aI0
aa(lp748
I0
aI0
aI0
aI0
aa(lp749
I0
aI0
aI0
aI0
aa(lp750
I0
aI0
aI0
aI0
aa(lp751
I0
aI0
aI0
aI0
aa(lp752
I0
aI0
aI0
aI0
aa(lp753
I0
aI0
aI0
aI0
aa(lp754
I0
aI0
aI0
aI0
aa(lp755
I0
aI0
aI0
aI0
aa(lp756
I0
aI0
aI0
aI0
aa(lp757
I0
aI0
aI0
aI0
aa(lp758
I0
aI0
aI0
aI0
aa(lp759
I0
aI0
aI0
aI0
aa(lp760
I0
aI0
aI0
aI0
aa(lp761
I0
aI0
aI0
aI0
aa(lp762
I0
aI0
aI0
aI0
aa(lp763
I0
aI0
aI0
aI0
aa(lp764
I0
aI0
aI0
aI0
aa(lp765
I0
aI0
aI0
aI0
aa(lp766
I0
aI0
aI0
aI0
aa(lp767
I0
aI0
aI0
aI0
aa(lp768
I0
aI0
aI0
aI0
aa(lp769
I0
aI0
aI0
aI0
aa(lp770
I0
aI0
aI0
aI0
aa(lp771
I0
aI0
aI0
aI0
aa(lp772
I0
aI0
aI0
aI0
aa(lp773
I0
aI0
aI0
aI0
aa(lp774
I0
aI0
aI0
aI0
aa(lp775
I0
aI0
aI0
aI0
aa(lp776
I0
aI0
aI0
aI0
aa(lp777
I0
aI0
aI0
aI0
aa(lp778
I0
aI0
aI0
aI0
aa(lp779
I0
aI0
aI0
aI0
aa(lp780
I0
aI0
aI0
aI0
aa(lp781
I0
aI0
aI0
aI0
aa(lp782
I0
aI0
aI0
aI0
aa(lp783
I0
aI0
aI0
aI0
aa(lp784
I0
aI0
aI0
aI0
aa(lp785
I0
aI0
aI0
aI0
aa(lp786
I0
aI0
aI0
aI0
aa(lp787
I0
aI0
aI0
aI0
aa(lp788
I0
aI0
aI0
aI0
aa(lp789
I0
aI0
aI0
aI0
aa(lp790
I0
aI0
aI0
aI0
aa(lp791
I0
aI0
aI0
aI0
aa(lp792
I0
aI0
aI0
aI0
aa(lp793
I0
aI0
aI0
aI0
aa(lp794
I0
aI0
aI0
aI0
aa(lp795
I0
aI0
aI0
aI0
aa(lp796
I0
aI0
aI0
aI0
aa(lp797
I0
aI0
aI0
aI0
aa(lp798
I0
aI0
aI0
aI0
aa(lp799
I0
aI0
aI0
aI0
aa(lp800
I0
aI0
aI0
aI0
aa(lp801
I0
aI0
aI0
aI0
aa(lp802
I0
aI0
aI0
aI0
aa(lp803
I0
aI0
aI0
aI0
aa(lp804
I0
aI0
aI0
aI0
aa(lp805
I0
aI0
aI0
aI0
aa(lp806
I0
aI0
aI0
aI0
aa(lp807
I0
aI0
aI0
aI0
aa(lp808
I0
aI0
aI0
aI0
aa(lp809
I0
aI0
aI0
aI0
aa(lp810
I0
aI0
aI0
aI0
aa(lp811
I0
aI0
aI0
aI0
aa(lp812
I0
aI0
aI0
aI0
aa(lp813
I0
aI0
aI0
aI0
aa(lp814
I0
aI0
aI0
aI0
aa(lp815
I0
aI0
aI0
aI0
aa(lp816
I0
aI0
aI0
aI0
aa(lp817
I0
aI0
aI0
aI0
aa(lp818
I0
aI0
aI0
aI0
aa(lp819
I0
aI0
aI0
aI0
aa(lp820
I0
aI0
aI0
aI0
aa(lp821
I0
aI0
aI0
aI0
aa(lp822
I0
aI0
aI0
aI0
aa(lp823
I0
aI0
aI0
aI0
aa(lp824
I0
aI0
aI0
aI0
aa(lp825
I0
aI0
aI0
aI0
aa(lp826
I0
aI0
aI0
aI0
aa(lp827
I0
aI0
aI0
aI0
aa(lp828
I0
aI0
aI0
aI0
aa(lp829
I0
aI0
aI0
aI0
aa(lp830
I0
aI0
aI0
aI0
aa(lp831
I0
aI0
aI0
aI0
aa(lp832
I0
aI0
aI0
aI0
aa(lp833
I0
aI0
aI0
aI0
aa(lp834
I0
aI0
aI0
aI0
aa(lp835
I0
aI0
aI0
aI0
aa(lp836
I0
aI0
aI0
aI0
aa(lp837
I0
aI0
aI0
aI0
aa(lp838
I0
aI0
aI0
aI0
aa(lp839
I0
aI0
aI0
aI0
aa(lp840
I0
aI0
aI0
aI0
aa(lp841
I0
aI0
aI0
aI0
aa(lp842
I0
aI0
aI0
aI0
aa(lp843
I0
aI0
aI0
aI0
aa(lp844
I0
aI0
aI0
aI0
aa(lp845
I0
aI0
aI0
aI0
aa(lp846
I0
aI0
aI0
aI0
aa(lp847
I0
aI0
aI0
aI0
aa(lp848
I0
aI0
aI0
aI0
aa(lp849
I0
aI0
aI0
aI0
aa(lp850
I0
aI0
aI0
aI0
aa(lp851
I0
aI0
aI0
aI0
aa(lp852
I0
aI0
aI0
aI0
aa(lp853
I0
aI0
aI0
aI0
aa(lp854
I0
aI0
aI0
aI0
aa(lp855
I0
aI0
aI0
aI0
aa(lp856
I0
aI0
aI0
aI0
aa(lp857
I0
aI0
aI0
aI0
aa(lp858
I0
aI0
aI0
aI0
aa(lp859
I0
aI0
aI0
aI0
aa(lp860
I0
aI0
aI0
aI0
aa(lp861
I0
aI0
aI0
aI0
aa(lp862
I0
aI0
aI0
aI0
aa(lp863
I0
aI0
aI0
aI0
aa(lp864
I0
aI0
aI0
aI0
aa(lp865
I0
aI0
aI0
aI0
aa(lp866
I0
aI0
aI0
aI0
aa(lp867
I0
aI0
aI0
aI0
aa(lp868
I0
aI0
aI0
aI0
aa(lp869
I0
aI0
aI0
aI0
aa(lp870
I0
aI0
aI0
aI0
aa(lp871
I0
aI0
aI0
aI0
aa(lp872
I0
aI0
aI0
aI0
aa(lp873
I0
aI0
aI0
aI0
aa(lp874
I0
aI0
aI0
aI0
aa(lp875
I0
aI0
aI0
aI0
aa(lp876
I0
aI0
aI0
aI0
aa(lp877
I0
aI0
aI0
aI0
aa(lp878
I0
aI0
aI0
aI0
aa(lp879
I0
aI0
aI0
aI0
aa(lp880
I0
aI0
aI0
aI0
aa(lp881
I0
aI0
aI0
aI0
aa(lp882
I0
aI0
aI0
aI0
aa(lp883
I0
aI0
aI0
aI0
aa(lp884
I0
aI0
aI0
aI0
aaa(lp885
(lp886
I0
aI0
aI0
aI0
aa(lp887
I0
aI0
aI0
aI0
aa(lp888
I0
aI0
aI0
aI0
aa(lp889
I0
aI0
aI0
aI0
aa(lp890
I0
aI0
aI0
aI0
aa(lp891
I0
aI0
aI0
aI0
aa(lp892
I0
aI0
aI0
aI0
aa(lp893
I0
aI0
aI0
aI0
aa(lp894
I0
aI0
aI0
aI0
aa(lp895
I0
aI0
aI0
aI0
aa(lp896
I0
aI0
aI0
aI0
aa(lp897
I0
aI0
aI0
aI0
aa(lp898
I0
aI0
aI0
aI0
aa(lp899
I0
aI0
aI0
aI0
aa(lp900
I0
aI0
aI0
aI0
aa(lp901
I0
aI0
aI0
aI0
aa(lp902
I0
aI0
aI0
aI0
aa(lp903
I0
aI0
aI0
aI0
aa(lp904
I0
aI0
aI0
aI0
aa(lp905
I0
aI0
aI0
aI0
aa(lp906
I0
aI0
aI0
aI0
aa(lp907
I0
aI0
aI0
aI0
aa(lp908
I0
aI0
aI0
aI0
aa(lp909
I0
aI0
aI0
aI0
aa(lp910
I0
aI0
aI0
aI0
aa(lp911
I0
aI0
aI0
aI0
aa(lp912
I0
aI0
aI0
aI0
aa(lp913
I0
aI0
aI0
aI0
aa(lp914
I0
aI0
aI0
aI0
aa(lp915
I0
aI0
aI0
aI0
aa(lp916
I0
aI0
aI0
aI0
aa(lp917
I0
aI0
aI0
aI0
aa(lp918
I0
aI0
aI0
aI0
aa(lp919
I0
aI0
aI0
aI0
aa(lp920
I0
aI0
aI0
aI0
aa(lp921
I0
aI0
aI0
aI0
aa(lp922
I0
aI0
aI0
aI0
aa(lp923
I0
aI0
aI0
aI0
aa(lp924
I0
aI0
aI0
aI0
aa(lp925
I0
aI0
aI0
aI0
aa(lp926
I0
aI0
aI0
aI0
aa(lp927
I0
aI0
aI0
aI0
aa(lp928
I0
aI0
aI0
aI0
aa(lp929
I0
aI0
aI0
aI0
aa(lp930
I0
aI0
aI0
aI0
aa(lp931
I0
aI0
aI0
aI0
aa(lp932
I0
aI0
aI0
aI0
aa(lp933
I0
aI0
aI0
aI0
aa(lp934
I0
aI0
aI0
aI0
aa(lp935
I0
aI0
aI0
aI0
aa(lp936
I0
aI0
aI0
aI0
aa(lp937
I0
aI0
aI0
aI0
aa(lp938
I0
aI0
aI0
aI0
aa(lp939
I0
aI0
aI0
aI0
aa(lp940
I0
aI0
aI0
aI0
aa(lp941
I0
aI0
aI0
aI0
aa(lp942
I0
aI0
aI0
aI0
aa(lp943
I0
aI0
aI0
aI0
aa(lp944
I0
aI0
aI0
aI0
aa(lp945
I0
aI0
aI0
aI0
aa(lp946
I0
aI0
aI0
aI0
aa(lp947
I0
aI0
aI0
aI0
aa(lp948
I0
aI0
aI0
aI0
aa(lp949
I0
aI0
aI0
aI0
aa(lp950
I0
aI0
aI0
aI0
aa(lp951
I0
aI0
aI0
aI0
aa(lp952
I0
aI0
aI0
aI0
aa(lp953
I0
aI0
aI0
aI0
aa(lp954
I0
aI0
aI0
aI0
aa(lp955
I0
aI0
aI0
aI0
aa(lp956
I0
aI0
aI0
aI0
aa(lp957
I0
aI0
aI0
aI0
aa(lp958
I0
aI0
aI0
aI0
aa(lp959
I0
aI0
aI0
aI0
aa(lp960
I0
aI0
aI0
aI0
aa(lp961
I0
aI0
aI0
aI0
aa(lp962
I0
aI0
aI0
aI0
aa(lp963
I0
aI0
aI0
aI0
aa(lp964
I0
aI0
aI0
aI0
aa(lp965
I0
aI0
aI0
aI0
aa(lp966
I0
aI0
aI0
aI0
aa(lp967
I0
aI0
aI0
aI0
aa(lp968
I0
aI0
aI0
aI0
aa(lp969
I0
aI0
aI0
aI0
aa(lp970
I0
aI0
aI0
aI0
aa(lp971
I0
aI0
aI0
aI0
aa(lp972
I0
aI0
aI0
aI0
aa(lp973
I0
aI0
aI0
aI0
aa(lp974
I0
aI0
aI0
aI0
aa(lp975
I0
aI0
aI0
aI0
aa(lp976
I0
aI0
aI0
aI0
aa(lp977
I0
aI0
aI0
aI0
aa(lp978
I0
aI0
aI0
aI0
aa(lp979
I0
aI0
aI0
aI0
aa(lp980
I0
aI0
aI0
aI0
aa(lp981
I0
aI0
aI0
aI0
aa(lp982
I0
aI0
aI0
aI0
aa(lp983
I0
aI0
aI0
aI0
aa(lp984
I0
aI0
aI0
aI0
aa(lp985
I0
aI0
aI0
aI0
aa(lp986
I0
aI0
aI0
aI0
aa(lp987
I0
aI0
aI0
aI0
aa(lp988
I0
aI0
aI0
aI0
aa(lp989
I0
aI0
aI0
aI0
aa(lp990
I0
aI0
aI0
aI0
aa(lp991
I0
aI0
aI0
aI0
aa(lp992
I0
aI0
aI0
aI0
aa(lp993
I0
aI0
aI0
aI0
aa(lp994
I0
aI0
aI0
aI0
aa(lp995
I0
aI0
aI0
aI0
aa(lp996
I0
aI0
aI0
aI0
aa(lp997
I0
aI0
aI0
aI0
aa(lp998
I0
aI0
aI0
aI0
aa(lp999
I0
aI0
aI0
aI0
aa(lp1000
I0
aI0
aI0
aI0
aa(lp1001
I0
aI0
aI0
aI0
aa(lp1002
I0
aI0
aI0
aI0
aa(lp1003
I0
aI0
aI0
aI0
aa(lp1004
I0
aI0
aI0
aI0
aa(lp1005
I0
aI0
aI0
aI0
aa(lp1006
I0
aI0
aI0
aI0
aa(lp1007
I0
aI0
aI0
aI0
aa(lp1008
I0
aI0
aI0
aI0
aa(lp1009
I0
aI0
aI0
aI0
aa(lp1010
I0
aI0
aI0
aI0
aa(lp1011
I0
aI0
aI0
aI0
aa(lp1012
I0
aI0
aI0
aI0
aa(lp1013
I0
aI0
aI0
aI0
aa(lp1014
I0
aI0
aI0
aI0
aa(lp1015
I0
aI0
aI0
aI0
aa(lp1016
I0
aI0
aI0
aI0
aa(lp1017
I0
aI0
aI0
aI0
aa(lp1018
I0
aI0
aI0
aI0
aa(lp1019
I0
aI0
aI0
aI0
aa(lp1020
I0
aI0
aI0
aI0
aa(lp1021
I0
aI0
aI0
aI0
aa(lp1022
I0
aI0
aI0
aI0
aa(lp1023
I0
aI0
aI0
aI0
aa(lp1024
I0
aI0
aI0
aI0
aa(lp1025
I0
aI0
aI0
aI0
aa(lp1026
I0
aI0
aI0
aI0
aa(lp1027
I0
aI0
aI0
aI0
aa(lp1028
I0
aI0
aI0
aI0
aa(lp1029
I0
aI0
aI0
aI0
aa(lp1030
I0
aI0
aI0
aI0
aa(lp1031
I0
aI0
aI0
aI0
aa(lp1032
I0
aI0
aI0
aI0
aa(lp1033
I0
aI0
aI0
aI0
aa(lp1034
I0
aI0
aI0
aI0
aa(lp1035
I0
aI0
aI0
aI0
aa(lp1036
I0
aI0
aI0
aI0
aa(lp1037
I0
aI0
aI0
aI0
aa(lp1038
I0
aI0
aI0
aI0
aa(lp1039
I0
aI0
aI0
aI0
aa(lp1040
I0
aI0
aI0
aI0
aa(lp1041
I0
aI0
aI0
aI0
aa(lp1042
I0
aI0
aI0
aI0
aa(lp1043
I0
aI0
aI0
aI0
aa(lp1044
I0
aI0
aI0
aI0
aa(lp1045
I0
aI0
aI0
aI0
aa(lp1046
I0
aI0
aI0
aI0
aa(lp1047
I0
aI0
aI0
aI0
aa(lp1048
I0
aI0
aI0
aI0
aa(lp1049
I0
aI0
aI0
aI0
aa(lp1050
I0
aI0
aI0
aI0
aa(lp1051
I0
aI0
aI0
aI0
aa(lp1052
I0
aI0
aI0
aI0
aa(lp1053
I0
aI0
aI0
aI0
aa(lp1054
I0
aI0
aI0
aI0
aa(lp1055
I0
aI0
aI0
aI0
aa(lp1056
I0
aI0
aI0
aI0
aa(lp1057
I0
aI0
aI0
aI0
aa(lp1058
I0
aI0
aI0
aI0
aa(lp1059
I0
aI0
aI0
aI0
aa(lp1060
I0
aI0
aI0
aI0
aa(lp1061
I0
aI0
aI0
aI0
aa(lp1062
I0
aI0
aI0
aI0
aa(lp1063
I0
aI0
aI0
aI0
aa(lp1064
I0
aI0
aI0
aI0
aa(lp1065
I0
aI0
aI0
aI0
aa(lp1066
I0
aI0
aI0
aI0
aa(lp1067
I0
aI0
aI0
aI0
aa(lp1068
I0
aI0
aI0
aI0
aa(lp1069
I0
aI0
aI0
aI0
aa(lp1070
I0
aI0
aI0
aI0
aa(lp1071
I0
aI0
aI0
aI0
aa(lp1072
I0
aI0
aI0
aI0
aa(lp1073
I0
aI0
aI0
aI0
aa(lp1074
I0
aI0
aI0
aI0
aa(lp1075
I0
aI0
aI0
aI0
aa(lp1076
I0
aI0
aI0
aI0
aa(lp1077
I0
aI0
aI0
aI0
aa(lp1078
I0
aI0
aI0
aI0
aa(lp1079
I0
aI0
aI0
aI0
aa(lp1080
I0
aI0
aI0
aI0
aa(lp1081
I0
aI0
aI0
aI0
aa(lp1082
I0
aI0
aI0
aI0
aa(lp1083
I0
aI0
aI0
aI0
aa(lp1084
I0
aI0
aI0
aI0
aa(lp1085
I0
aI0
aI0
aI0
aa(lp1086
I0
aI0
aI0
aI0
aa(lp1087
I0
aI0
aI0
aI0
aa(lp1088
I0
aI0
aI0
aI0
aa(lp1089
I0
aI0
aI0
aI0
aa(lp1090
I0
aI0
aI0
aI0
aa(lp1091
I0
aI0
aI0
aI0
aa(lp1092
I0
aI0
aI0
aI0
aa(lp1093
I0
aI0
aI0
aI0
aa(lp1094
I0
aI0
aI0
aI0
aa(lp1095
I0
aI0
aI0
aI0
aa(lp1096
I0
aI0
aI0
aI0
aa(lp1097
I0
aI0
aI0
aI0
aa(lp1098
I0
aI0
aI0
aI0
aa(lp1099
I0
aI0
aI0
aI0
aa(lp1100
I0
aI0
aI0
aI0
aa(lp1101
I0
aI0
aI0
aI0
aaa(lp1102
(lp1103
I0
aI0
aI0
aI0
aa(lp1104
I0
aI0
aI0
aI0
aa(lp1105
I0
aI0
aI0
aI0
aa(lp1106
I0
aI0
aI0
aI0
aa(lp1107
I0
aI0
aI0
aI0
aa(lp1108
I0
aI0
aI0
aI0
aa(lp1109
I0
aI0
aI0
aI0
aa(lp1110
I0
aI0
aI0
aI0
aa(lp1111
I0
aI0
aI0
aI0
aa(lp1112
I0
aI0
aI0
aI0
aa(lp1113
I0
aI0
aI0
aI0
aa(lp1114
I0
aI0
aI0
aI0
aa(lp1115
I0
aI0
aI0
aI0
aa(lp1116
I0
aI0
aI0
aI0
aa(lp1117
I0
aI0
aI0
aI0
aa(lp1118
I0
aI0
aI0
aI0
aa(lp1119
I0
aI0
aI0
aI0
aa(lp1120
I0
aI0
aI0
aI0
aa(lp1121
I0
aI0
aI0
aI0
aa(lp1122
I0
aI0
aI0
aI0
aa(lp1123
I0
aI0
aI0
aI0
aa(lp1124
I0
aI0
aI0
aI0
aa(lp1125
I0
aI0
aI0
aI0
aa(lp1126
I0
aI0
aI0
aI0
aa(lp1127
I0
aI0
aI0
aI0
aa(lp1128
I0
aI0
aI0
aI0
aa(lp1129
I0
aI0
aI0
aI0
aa(lp1130
I0
aI0
aI0
aI0
aa(lp1131
I0
aI0
aI0
aI0
aa(lp1132
I0
aI0
aI0
aI0
aa(lp1133
I0
aI0
aI0
aI0
aa(lp1134
I0
aI0
aI0
aI0
aa(lp1135
I0
aI0
aI0
aI0
aa(lp1136
I0
aI0
aI0
aI0
aa(lp1137
I0
aI0
aI0
aI0
aa(lp1138
I0
aI0
aI0
aI0
aa(lp1139
I0
aI0
aI0
aI0
aa(lp1140
I0
aI0
aI0
aI0
aa(lp1141
I0
aI0
aI0
aI0
aa(lp1142
I0
aI0
aI0
aI0
aa(lp1143
I0
aI0
aI0
aI0
aa(lp1144
I0
aI0
aI0
aI0
aa(lp1145
I0
aI0
aI0
aI0
aa(lp1146
I0
aI0
aI0
aI0
aa(lp1147
I0
aI0
aI0
aI0
aa(lp1148
I0
aI0
aI0
aI0
aa(lp1149
I0
aI0
aI0
aI0
aa(lp1150
I0
aI0
aI0
aI0
aa(lp1151
I0
aI0
aI0
aI0
aa(lp1152
I0
aI0
aI0
aI0
aa(lp1153
I0
aI0
aI0
aI0
aa(lp1154
I0
aI0
aI0
aI0
aa(lp1155
I0
aI0
aI0
aI0
aa(lp1156
I0
aI0
aI0
aI0
aa(lp1157
I0
aI0
aI0
aI0
aa(lp1158
I0
aI0
aI0
aI0
aa(lp1159
I0
aI0
aI0
aI0
aa(lp1160
I0
aI0
aI0
aI0
aa(lp1161
I0
aI0
aI0
aI0
aa(lp1162
I0
aI0
aI0
aI0
aa(lp1163
I0
aI0
aI0
aI0
aa(lp1164
I0
aI0
aI0
aI0
aa(lp1165
I0
aI0
aI0
aI0
aa(lp1166
I0
aI0
aI0
aI0
aa(lp1167
I0
aI0
aI0
aI0
aa(lp1168
I0
aI0
aI0
aI0
aa(lp1169
I0
aI0
aI0
aI0
aa(lp1170
I0
aI0
aI0
aI0
aa(lp1171
I0
aI0
aI0
aI0
aa(lp1172
I0
aI0
aI0
aI0
aa(lp1173
I0
aI0
aI0
aI0
aa(lp1174
I0
aI0
aI0
aI0
aa(lp1175
I0
aI0
aI0
aI0
aa(lp1176
I0
aI0
aI0
aI0
aa(lp1177
I0
aI0
aI0
aI0
aa(lp1178
I0
aI0
aI0
aI0
aa(lp1179
I0
aI0
aI0
aI0
aa(lp1180
I0
aI0
aI0
aI0
aa(lp1181
I0
aI0
aI0
aI0
aa(lp1182
I0
aI0
aI0
aI0
aa(lp1183
I0
aI0
aI0
aI0
aa(lp1184
I0
aI0
aI0
aI0
aa(lp1185
I0
aI0
aI0
aI0
aa(lp1186
I0
aI0
aI0
aI0
aa(lp1187
I0
aI0
aI0
aI0
aa(lp1188
I0
aI0
aI0
aI0
aa(lp1189
I0
aI0
aI0
aI0
aa(lp1190
I0
aI0
aI0
aI0
aa(lp1191
I0
aI0
aI0
aI0
aa(lp1192
I0
aI0
aI0
aI0
aa(lp1193
I0
aI0
aI0
aI0
aa(lp1194
I0
aI0
aI0
aI0
aa(lp1195
I0
aI0
aI0
aI0
aa(lp1196
I0
aI0
aI0
aI0
aa(lp1197
I0
aI0
aI0
aI0
aa(lp1198
I0
aI0
aI0
aI0
aa(lp1199
I0
aI0
aI0
aI0
aa(lp1200
I0
aI0
aI0
aI0
aa(lp1201
I0
aI0
aI0
aI0
aa(lp1202
I0
aI0
aI0
aI0
aa(lp1203
I0
aI0
aI0
aI0
aa(lp1204
I0
aI0
aI0
aI0
aa(lp1205
I0
aI0
aI0
aI0
aa(lp1206
I0
aI0
aI0
aI0
aa(lp1207
I0
aI0
aI0
aI0
aa(lp1208
I0
aI0
aI0
aI0
aa(lp1209
I0
aI0
aI0
aI0
aa(lp1210
I0
aI0
aI0
aI0
aa(lp1211
I0
aI0
aI0
aI0
aa(lp1212
I0
aI0
aI0
aI0
aa(lp1213
I0
aI0
aI0
aI0
aa(lp1214
I0
aI0
aI0
aI0
aa(lp1215
I0
aI0
aI0
aI0
aa(lp1216
I0
aI0
aI0
aI0
aa(lp1217
I0
aI0
aI0
aI0
aa(lp1218
I0
aI0
aI0
aI0
aa(lp1219
I0
aI0
aI0
aI0
aa(lp1220
I0
aI0
aI0
aI0
aa(lp1221
I0
aI0
aI0
aI0
aa(lp1222
I0
aI0
aI0
aI0
aa(lp1223
I0
aI0
aI0
aI0
aa(lp1224
I0
aI0
aI0
aI0
aa(lp1225
I0
aI0
aI0
aI0
aa(lp1226
I0
aI0
aI0
aI0
aa(lp1227
I0
aI0
aI0
aI0
aa(lp1228
I0
aI0
aI0
aI0
aa(lp1229
I0
aI0
aI0
aI0
aa(lp1230
I0
aI0
aI0
aI0
aa(lp1231
I0
aI0
aI0
aI0
aa(lp1232
I0
aI0
aI0
aI0
aa(lp1233
I0
aI0
aI0
aI0
aa(lp1234
I0
aI0
aI0
aI0
aa(lp1235
I0
aI0
aI0
aI0
aa(lp1236
I0
aI0
aI0
aI0
aa(lp1237
I0
aI0
aI0
aI0
aa(lp1238
I0
aI0
aI0
aI0
aa(lp1239
I0
aI0
aI0
aI0
aa(lp1240
I0
aI0
aI0
aI0
aa(lp1241
I0
aI0
aI0
aI0
aa(lp1242
I0
aI0
aI0
aI0
aa(lp1243
I0
aI0
aI0
aI0
aa(lp1244
I0
aI0
aI0
aI0
aa(lp1245
I0
aI0
aI0
aI0
aa(lp1246
I0
aI0
aI0
aI0
aa(lp1247
I0
aI0
aI0
aI0
aa(lp1248
I0
aI0
aI0
aI0
aa(lp1249
I0
aI0
aI0
aI0
aa(lp1250
I0
aI0
aI0
aI0
aa(lp1251
I0
aI0
aI0
aI0
aa(lp1252
I0
aI0
aI0
aI0
aa(lp1253
I0
aI0
aI0
aI0
aa(lp1254
I0
aI0
aI0
aI0
aa(lp1255
I0
aI0
aI0
aI0
aa(lp1256
I0
aI0
aI0
aI0
aa(lp1257
I0
aI0
aI0
aI0
aa(lp1258
I0
aI0
aI0
aI0
aa(lp1259
I0
aI0
aI0
aI0
aa(lp1260
I0
aI0
aI0
aI0
aa(lp1261
I0
aI0
aI0
aI0
aa(lp1262
I0
aI0
aI0
aI0
aa(lp1263
I0
aI0
aI0
aI0
aa(lp1264
I0
aI0
aI0
aI0
aa(lp1265
I0
aI0
aI0
aI0
aa(lp1266
I0
aI0
aI0
aI0
aa(lp1267
I0
aI0
aI0
aI0
aa(lp1268
I0
aI0
aI0
aI0
aa(lp1269
I0
aI0
aI0
aI0
aa(lp1270
I0
aI0
aI0
aI0
aa(lp1271
I0
aI0
aI0
aI0
aa(lp1272
I0
aI0
aI0
aI0
aa(lp1273
I0
aI0
aI0
aI0
aa(lp1274
I0
aI0
aI0
aI0
aa(lp1275
I0
aI0
aI0
aI0
aa(lp1276
I0
aI0
aI0
aI0
aa(lp1277
I0
aI0
aI0
aI0
aa(lp1278
I0
aI0
aI0
aI0
aa(lp1279
I0
aI0
aI0
aI0
aa(lp1280
I0
aI0
aI0
aI0
aa(lp1281
I0
aI0
aI0
aI0
aa(lp1282
I0
aI0
aI0
aI0
aa(lp1283
I0
aI0
aI0
aI0
aa(lp1284
I0
aI0
aI0
aI0
aa(lp1285
I0
aI0
aI0
aI0
aa(lp1286
I0
aI0
aI0
aI0
aa(lp1287
I0
aI0
aI0
aI0
aa(lp1288
I0
aI0
aI0
aI0
aa(lp1289
I0
aI0
aI0
aI0
aa(lp1290
I0
aI0
aI0
aI0
aa(lp1291
I0
aI0
aI0
aI0
aa(lp1292
I0
aI0
aI0
aI0
aa(lp1293
I0
aI0
aI0
aI0
aa(lp1294
I0
aI0
aI0
aI0
aa(lp1295
I0
aI0
aI0
aI0
aa(lp1296
I0
aI0
aI0
aI0
aa(lp1297
I0
aI0
aI0
aI0
aa(lp1298
I0
aI0
aI0
aI0
aa(lp1299
I0
aI0
aI0
aI0
aa(lp1300
I0
aI0
aI0
aI0
aa(lp1301
I0
aI0
aI0
aI0
aa(lp1302
I0
aI0
aI0
aI0
aa(lp1303
I0
aI0
aI0
aI0
aa(lp1304
I0
aI0
aI0
aI0
aa(lp1305
I0
aI0
aI0
aI0
aa(lp1306
I0
aI0
aI0
aI0
aa(lp1307
I0
aI0
aI0
aI0
aa(lp1308
I0
aI0
aI0
aI0
aa(lp1309
I0
aI0
aI0
aI0
aa(lp1310
I0
aI0
aI0
aI0
aa(lp1311
I0
aI0
aI0
aI0
aa(lp1312
I0
aI0
aI0
aI0
aa(lp1313
I0
aI0
aI0
aI0
aa(lp1314
I0
aI0
aI0
aI0
aa(lp1315
I0
aI0
aI0
aI0
aa(lp1316
I0
aI0
aI0
aI0
aa(lp1317
I0
aI0
aI0
aI0
aa(lp1318
I0
aI0
aI0
aI0
aaa(lp1319
(lp1320
F0.0
aF0.0
aF0.0
aF0.0
aa(lp1321
F0.0
aF0.0
aF0.0
aF0.0
aa(lp1322
F0.0
aF0.0
aF0.0
aF0.0
aa(lp1323
F0.0
aF0.0
aF0.0
aF0.0
aa(lp1324
F0.0
aF0.0
aF0.0
aF0.0
aa(lp1325
F0.0
aF0.0
aF0.0
aF0.0
aa(lp1326
F0.0
aF0.0
aF0.0
aF0.0
aa(lp1327
F0.0
aF0.0
aF0.0
aF0.0
aa(lp1328
F0.0
aF0.0
aF0.0
aF0.0
aa(lp1329
F0.0
aF0.0
aF0.0
aF0.0
aa(lp1330
F0.0
aF0.0
aF0.0
aF0.0
aa(lp1331
F0.0
aF0.0
aF0.0
aF0.0
aa(lp1332
F0.0
aF0.0
aF0.0
aF0.0
aa(lp1333
F0.0
aF0.0
aF0.0
aF0.0
aa(lp1334
F0.0
aF0.0
aF0.0
aF0.0
aa(lp1335
F0.0
aF0.0
aF0.0
aF0.0
aa(lp1336
F0.0
aF0.0
aF0.0
aF0.0
aa(lp1337
F0.0
aF0.0
aF0.0
aF0.0
aa(lp1338
F0.0
aF0.0
aF0.0
aF0.0
aa(lp1339
F0.0
aF0.0
aF0.0
aF0.0
aa(lp1340
F0.0
aF0.0
aF0.0
aF0.0
aa(lp1341
F0.0
aF0.0
aF0.0
aF0.0
aa(lp1342
F0.0
aF0.0
aF0.0
aF0.0
aa(lp1343
F0.0
aF0.0
aF0.0
aF0.0
aa(lp1344
F0.0
aF0.0
aF0.0
aF0.0
aa(lp1345
F0.0
aF0.0
aF0.0
aF0.0
aa(lp1346
F0.0
aF0.0
aF0.0
aF0.0
aa(lp1347
F0.0
aF0.0
aF0.0
aF0.0
aa(lp1348
F0.0
aF0.0
aF0.0
aF0.0
aa(lp1349
F0.0
aF0.0
aF0.0
aF0.0
aa(lp1350
F0.0
aF0.0
aF0.0
aF0.0
aa(lp1351
F0.0
aF0.0
aF0.0
aF0.0
aa(lp1352
F0.0
aF0.0
aF0.0
aF0.0
aa(lp1353
F0.0
aF0.0
aF0.0
aF0.0
aa(lp1354
F0.0
aF0.0
aF0.0
aF0.0
aa(lp1355
F0.0
aF0.0
aF0.0
aF0.0
aa(lp1356
F0.0
aF0.0
aF0.0
aF0.0
aa(lp1357
F0.0
aF0.0
aF0.0
aF0.0
aa(lp1358
F0.0
aF0.0
aF0.0
aF0.0
aa(lp1359
F0.0
aF0.0
aF0.0
aF0.0
aa(lp1360
F0.0
aF0.0
aF0.0
aF0.0
aa(lp1361
F0.0
aF0.0
aF0.0
aF0.0
aa(lp1362
F0.0
aF0.0
aF0.0
aF0.0
aa(lp1363
F0.0
aF0.0
aF0.0
aF0.0
aa(lp1364
F0.0
aF0.0
aF0.0
aF0.0
aa(lp1365
F0.0
aF0.0
aF0.0
aF0.0
aa(lp1366
F0.0
aF0.0
aF0.0
aF0.0
aa(lp1367
F0.0
aF0.0
aF0.0
aF0.0
aa(lp1368
F0.0
aF0.0
aF0.0
aF0.0
aa(lp1369
F0.0
aF0.0
aF0.0
aF0.0
aa(lp1370
F0.0
aF0.0
aF0.0
aF0.0
aa(lp1371
F0.0
aF0.0
aF0.0
aF0.0
aa(lp1372
F0.0
aF0.0
aF0.0
aF0.0
aa(lp1373
F0.0
aF0.0
aF0.0
aF0.0
aa(lp1374
F0.0
aF0.0
aF0.0
aF0.0
aa(lp1375
F0.0
aF0.0
aF0.0
aF0.0
aa(lp1376
F0.0
aF0.0
aF0.0
aF0.0
aa(lp1377
F0.0
aF0.0
aF0.0
aF0.0
aa(lp1378
F0.0
aF0.0
aF0.0
aF0.0
aa(lp1379
F0.0
aF0.0
aF0.0
aF0.0
aa(lp1380
F0.0
aF0.0
aF0.0
aF0.0
aa(lp1381
F0.0
aF0.0
aF0.0
aF0.0
aa(lp1382
F0.0
aF0.0
aF0.0
aF0.0
aa(lp1383
F0.0
aF0.0
aF0.0
aF0.0
aa(lp1384
F0.0
aF0.0
aF0.0
aF0.0
aa(lp1385
F0.0
aF0.0
aF0.0
aF0.0
aa(lp1386
F0.0
aF0.0
aF0.0
aF0.0
aa(lp1387
F0.0
aF0.0
aF0.0
aF0.0
aa(lp1388
F0.0
aF0.0
aF0.0
aF0.0
aa(lp1389
F0.0
aF0.0
aF0.0
aF0.0
aa(lp1390
F0.0
aF0.0
aF0.0
aF0.0
aa(lp1391
F0.0
aF0.0
aF0.0
aF0.0
aa(lp1392
F0.0
aF0.0
aF0.0
aF0.0
aa(lp1393
F0.0
aF0.0
aF0.0
aF0.0
aa(lp1394
F0.0
aF0.0
aF0.0
aF0.0
aa(lp1395
F0.0
aF0.0
aF0.0
aF0.0
aa(lp1396
F0.0
aF0.0
aF0.0
aF0.0
aa(lp1397
F0.0
aF0.0
aF0.0
aF0.0
aa(lp1398
F0.0
aF0.0
aF0.0
aF0.0
aa(lp1399
F0.0
aF0.0
aF0.0
aF0.0
aa(lp1400
F0.0
aF0.0
aF0.0
aF0.0
aa(lp1401
F0.0
aF0.0
aF0.0
aF0.0
aa(lp1402
F0.0
aF0.0
aF0.0
aF0.0
aa(lp1403
F0.0
aF0.0
aF0.0
aF0.0
aa(lp1404
F0.0
aF0.0
aF0.0
aF0.0
aa(lp1405
F0.0
aF0.0
aF0.0
aF0.0
aa(lp1406
F0.0
aF0.0
aF0.0
aF0.0
aa(lp1407
F0.0
aF0.0
aF0.0
aF0.0
aa(lp1408
F0.0
aF0.0
aF0.0
aF0.0
aa(lp1409
F0.0
aF0.0
aF0.0
aF0.0
aa(lp1410
F0.0
aF0.0
aF0.0
aF0.0
aa(lp1411
F0.0
aF0.0
aF0.0
aF0.0
aa(lp1412
F0.0
aF0.0
aF0.0
aF0.0
aa(lp1413
F0.0
aF0.0
aF0.0
aF0.0
aa(lp1414
F0.0
aF0.0
aF0.0
aF0.0
aa(lp1415
F0.0
aF0.0
aF0.0
aF0.0
aa(lp1416
F0.0
aF0.0
aF0.0
aF0.0
aa(lp1417
F0.0
aF0.0
aF0.0
aF0.0
aa(lp1418
F0.0
aF0.0
aF0.0
aF0.0
aa(lp1419
F0.0
aF0.0
aF0.0
aF0.0
aa(lp1420
F0.0
aF0.0
aF0.0
aF0.0
aa(lp1421
F0.0
aF0.0
aF0.0
aF0.0
aa(lp1422
F0.0
aF0.0
aF0.0
aF0.0
aa(lp1423
F0.0
aF0.0
aF0.0
aF0.0
aa(lp1424
F0.0
aF0.0
aF0.0
aF0.0
aa(lp1425
F0.0
aF0.0
aF0.0
aF0.0
aa(lp1426
F0.0
aF0.0
aF0.0
aF0.0
aa(lp1427
F0.0
aF0.0
aF0.0
aF0.0
aa(lp1428
F0.0
aF0.0
aF0.0
aF0.0
aa(lp1429
F0.0
aF0.0
aF0.0
aF0.0
aa(lp1430
F0.0
aF0.0
aF0.0
aF0.0
aa(lp1431
F0.0
aF0.0
aF0.0
aF0.0
aa(lp1432
F0.0
aF0.0
aF0.0
aF0.0
aa(lp1433
F0.0
aF0.0
aF0.0
aF0.0
aa(lp1434
F0.0
aF0.0
aF0.0
aF0.0
aa(lp1435
F0.0
aF0.0
aF0.0
aF0.0
aa(lp1436
F0.0
aF0.0
aF0.0
aF0.0
aa(lp1437
F0.0
aF0.0
aF0.0
aF0.0
aa(lp1438
F0.0
aF0.0
aF0.0
aF0.0
aa(lp1439
F0.0
aF0.0
aF0.0
aF0.0
aa(lp1440
F0.0
aF0.0
aF0.0
aF0.0
aa(lp1441
F0.0
aF0.0
aF0.0
aF0.0
aa(lp1442
F0.0
aF0.0
aF0.0
aF0.0
aa(lp1443
F0.0
aF0.0
aF0.0
aF0.0
aa(lp1444
F0.0
aF0.0
aF0.0
aF0.0
aa(lp1445
F0.0
aF0.0
aF0.0
aF0.0
aa(lp1446
F0.0
aF0.0
aF0.0
aF0.0
aa(lp1447
F0.0
aF0.0
aF0.0
aF0.0
aa(lp1448
F0.0
aF0.0
aF0.0
aF0.0
aa(lp1449
F0.0
aF0.0
aF0.0
aF0.0
aa(lp1450
F0.0
aF0.0
aF0.0
aF0.0
aa(lp1451
F0.0
aF0.0
aF0.0
aF0.0
aa(lp1452
F0.0
aF0.0
aF0.0
aF0.0
aa(lp1453
F0.0
aF0.0
aF0.0
aF0.0
aa(lp1454
F0.0
aF0.0
aF0.0
aF0.0
aa(lp1455
F0.0
aF0.0
aF0.0
aF0.0
aa(lp1456
F0.0
aF0.0
aF0.0
aF0.0
aa(lp1457
F0.0
aF0.0
aF0.0
aF0.0
aa(lp1458
F0.0
aF0.0
aF0.0
aF0.0
aa(lp1459
F0.0
aF0.0
aF0.0
aF0.0
aa(lp1460
F0.0
aF0.0
aF0.0
aF0.0
aa(lp1461
F0.0
aF0.0
aF0.0
aF0.0
aa(lp1462
F0.0
aF0.0
aF0.0
aF0.0
aa(lp1463
F0.0
aF0.0
aF0.0
aF0.0
aa(lp1464
F0.0
aF0.0
aF0.0
aF0.0
aa(lp1465
F0.0
aF0.0
aF0.0
aF0.0
aa(lp1466
F0.0
aF0.0
aF0.0
aF0.0
aa(lp1467
F0.0
aF0.0
aF0.0
aF0.0
aa(lp1468
F0.0
aF0.0
aF0.0
aF0.0
aa(lp1469
F0.0
aF0.0
aF0.0
aF0.0
aa(lp1470
F0.0
aF0.0
aF0.0
aF0.0
aa(lp1471
F0.0
aF0.0
aF0.0
aF0.0
aa(lp1472
F0.0
aF0.0
aF0.0
aF0.0
aa(lp1473
F0.0
aF0.0
aF0.0
aF0.0
aa(lp1474
F0.0
aF0.0
aF0.0
aF0.0
aa(lp1475
F0.0
aF0.0
aF0.0
aF0.0
aa(lp1476
F0.0
aF0.0
aF0.0
aF0.0
aa(lp1477
F0.0
aF0.0
aF0.0
aF0.0
aa(lp1478
F0.0
aF0.0
aF0.0
aF0.0
aa(lp1479
F0.0
aF0.0
aF0.0
aF0.0
aa(lp1480
F0.0
aF0.0
aF0.0
aF0.0
aa(lp1481
F0.0
aF0.0
aF0.0
aF0.0
aa(lp1482
F0.0
aF0.0
aF0.0
aF0.0
aa(lp1483
F0.0
aF0.0
aF0.0
aF0.0
aa(lp1484
F0.0
aF0.0
aF0.0
aF0.0
aa(lp1485
F0.0
aF0.0
aF0.0
aF0.0
aa(lp1486
F0.0
aF0.0
aF0.0
aF0.0
aa(lp1487
F0.0
aF0.0
aF0.0
aF0.0
aa(lp1488
F0.0
aF0.0
aF0.0
aF0.0
aa(lp1489
F0.0
aF0.0
aF0.0
aF0.0
aa(lp1490
F0.0
aF0.0
aF0.0
aF0.0
aa(lp1491
F0.0
aF0.0
aF0.0
aF0.0
aa(lp1492
F0.0
aF0.0
aF0.0
aF0.0
aa(lp1493
F0.0
aF0.0
aF0.0
aF0.0
aa(lp1494
F0.0
aF0.0
aF0.0
aF0.0
aa(lp1495
F0.0
aF0.0
aF0.0
aF0.0
aa(lp1496
F0.0
aF0.0
aF0.0
aF0.0
aa(lp1497
F0.0
aF0.0
aF0.0
aF0.0
aa(lp1498
F0.0
aF0.0
aF0.0
aF0.0
aa(lp1499
F0.0
aF0.0
aF0.0
aF0.0
aa(lp1500
F0.0
aF0.0
aF0.0
aF0.0
aa(lp1501
F0.0
aF0.0
aF0.0
aF0.0
aa(lp1502
F0.0
aF0.0
aF0.0
aF0.0
aa(lp1503
F0.0
aF0.0
aF0.0
aF0.0
aa(lp1504
F0.0
aF0.0
aF0.0
aF0.0
aa(lp1505
F0.0
aF0.0
aF0.0
aF0.0
aa(lp1506
F0.0
aF0.0
aF0.0
aF0.0
aa(lp1507
F0.0
aF0.0
aF0.0
aF0.0
aa(lp1508
F0.0
aF0.0
aF0.0
aF0.0
aa(lp1509
F0.0
aF0.0
aF0.0
aF0.0
aa(lp1510
F0.0
aF0.0
aF0.0
aF0.0
aa(lp1511
F0.0
aF0.0
aF0.0
aF0.0
aa(lp1512
F0.0
aF0.0
aF0.0
aF0.0
aa(lp1513
F0.0
aF0.0
aF0.0
aF0.0
aa(lp1514
F0.0
aF0.0
aF0.0
aF0.0
aa(lp1515
F0.0
aF0.0
aF0.0
aF0.0
aa(lp1516
F0.0
aF0.0
aF0.0
aF0.0
aa(lp1517
F0.0
aF0.0
aF0.0
aF0.0
aa(lp1518
F0.0
aF0.0
aF0.0
aF0.0
aa(lp1519
F0.0
aF0.0
aF0.0
aF0.0
aa(lp1520
F0.0
aF0.0
aF0.0
aF0.0
aa(lp1521
F0.0
aF0.0
aF0.0
aF0.0
aa(lp1522
F0.0
aF0.0
aF0.0
aF0.0
aa(lp1523
F0.0
aF0.0
aF0.0
aF0.0
aa(lp1524
F0.0
aF0.0
aF0.0
aF0.0
aa(lp1525
F0.0
aF0.0
aF0.0
aF0.0
aa(lp1526
F0.0
aF0.0
aF0.0
aF0.0
aa(lp1527
F0.0
aF0.0
aF0.0
aF0.0
aa(lp1528
F0.0
aF0.0
aF0.0
aF0.0
aa(lp1529
F0.0
aF0.0
aF0.0
aF0.0
aa(lp1530
F0.0
aF0.0
aF0.0
aF0.0
aa(lp1531
F0.0
aF0.0
aF0.0
aF0.0
aa(lp1532
F0.0
aF0.0
aF0.0
aF0.0
aa(lp1533
F0.0
aF0.0
aF0.0
aF0.0
aa(lp1534
F0.0
aF0.0
aF0.0
aF0.0
aa(lp1535
F0.0
aF0.0
aF0.0
aF0.0
aaa(lp1536
(lp1537
(lp1538
I0
aI0
aI0
aa(lp1539
I0
aI0
aI0
aa(lp1540
I0
aI0
aI0
aa(lp1541
I0
aI0
aI0
aaa(lp1542
(lp1543
I0
aI0
aI0
aa(lp1544
I0
aI0
aI0
aa(lp1545
I0
aI0
aI0
aa(lp1546
I0
aI0
aI0
aaa(lp1547
(lp1548
I0
aI0
aI0
aa(lp1549
I0
aI0
aI0
aa(lp1550
I0
aI0
aI0
aa(lp1551
I0
aI0
aI0
aaa(lp1552
(lp1553
I0
aI0
aI0
aa(lp1554
I0
aI0
aI0
aa(lp1555
I0
aI0
aI0
aa(lp1556
I0
aI0
aI0
aaa(lp1557
(lp1558
I0
aI0
aI0
aa(lp1559
I0
aI0
aI0
aa(lp1560
I0
aI0
aI0
aa(lp1561
I0
aI0
aI0
aaa(lp1562
(lp1563
I0
aI0
aI0
aa(lp1564
I0
aI0
aI0
aa(lp1565
I0
aI0
aI0
aa(lp1566
I0
aI0
aI0
aaa(lp1567
(lp1568
I0
aI0
aI0
aa(lp1569
I0
aI0
aI0
aa(lp1570
I0
aI0
aI0
aa(lp1571
I0
aI0
aI0
aaa(lp1572
(lp1573
I0
aI0
aI0
aa(lp1574
I0
aI0
aI0
aa(lp1575
I0
aI0
aI0
aa(lp1576
I0
aI0
aI0
aaa(lp1577
(lp1578
I0
aI0
aI0
aa(lp1579
I0
aI0
aI0
aa(lp1580
I0
aI0
aI0
aa(lp1581
I0
aI0
aI0
aaa(lp1582
(lp1583
I0
aI0
aI0
aa(lp1584
I0
aI0
aI0
aa(lp1585
I0
aI0
aI0
aa(lp1586
I0
aI0
aI0
aaa(lp1587
(lp1588
I0
aI0
aI0
aa(lp1589
I0
aI0
aI0
aa(lp1590
I0
aI0
aI0
aa(lp1591
I0
aI0
aI0
aaa(lp1592
(lp1593
I0
aI0
aI0
aa(lp1594
I0
aI0
aI0
aa(lp1595
I0
aI0
aI0
aa(lp1596
I0
aI0
aI0
aaa(lp1597
(lp1598
I0
aI0
aI0
aa(lp1599
I0
aI0
aI0
aa(lp1600
I0
aI0
aI0
aa(lp1601
I0
aI0
aI0
aaa(lp1602
(lp1603
I0
aI0
aI0
aa(lp1604
I0
aI0
aI0
aa(lp1605
I0
aI0
aI0
aa(lp1606
I0
aI0
aI0
aaa(lp1607
(lp1608
I0
aI0
aI0
aa(lp1609
I0
aI0
aI0
aa(lp1610
I0
aI0
aI0
aa(lp1611
I0
aI0
aI0
aaa(lp1612
(lp1613
I0
aI0
aI0
aa(lp1614
I0
aI0
aI0
aa(lp1615
I0
aI0
aI0
aa(lp1616
I0
aI0
aI0
aaa(lp1617
(lp1618
I0
aI0
aI0
aa(lp1619
I0
aI0
aI0
aa(lp1620
I0
aI0
aI0
aa(lp1621
I0
aI0
aI0
aaa(lp1622
(lp1623
I0
aI0
aI0
aa(lp1624
I0
aI0
aI0
aa(lp1625
I0
aI0
aI0
aa(lp1626
I0
aI0
aI0
aaa(lp1627
(lp1628
I0
aI0
aI0
aa(lp1629
I0
aI0
aI0
aa(lp1630
I0
aI0
aI0
aa(lp1631
I0
aI0
aI0
aaa(lp1632
(lp1633
I0
aI0
aI0
aa(lp1634
I0
aI0
aI0
aa(lp1635
I0
aI0
aI0
aa(lp1636
I0
aI0
aI0
aaa(lp1637
(lp1638
I0
aI0
aI0
aa(lp1639
I0
aI0
aI0
aa(lp1640
I0
aI0
aI0
aa(lp1641
I0
aI0
aI0
aaa(lp1642
(lp1643
I0
aI0
aI0
aa(lp1644
I0
aI0
aI0
aa(lp1645
I0
aI0
aI0
aa(lp1646
I0
aI0
aI0
aaa(lp1647
(lp1648
I0
aI0
aI0
aa(lp1649
I0
aI0
aI0
aa(lp1650
I0
aI0
aI0
aa(lp1651
I0
aI0
aI0
aaa(lp1652
(lp1653
I0
aI0
aI0
aa(lp1654
I0
aI0
aI0
aa(lp1655
I0
aI0
aI0
aa(lp1656
I0
aI0
aI0
aaa(lp1657
(lp1658
I0
aI0
aI0
aa(lp1659
I0
aI0
aI0
aa(lp1660
I0
aI0
aI0
aa(lp1661
I0
aI0
aI0
aaa(lp1662
(lp1663
I0
aI0
aI0
aa(lp1664
I0
aI0
aI0
aa(lp1665
I0
aI0
aI0
aa(lp1666
I0
aI0
aI0
aaa(lp1667
(lp1668
I0
aI0
aI0
aa(lp1669
I0
aI0
aI0
aa(lp1670
I0
aI0
aI0
aa(lp1671
I0
aI0
aI0
aaa(lp1672
(lp1673
I0
aI0
aI0
aa(lp1674
I0
aI0
aI0
aa(lp1675
I0
aI0
aI0
aa(lp1676
I0
aI0
aI0
aaa(lp1677
(lp1678
I0
aI0
aI0
aa(lp1679
I0
aI0
aI0
aa(lp1680
I0
aI0
aI0
aa(lp1681
I0
aI0
aI0
aaa(lp1682
(lp1683
I0
aI0
aI0
aa(lp1684
I0
aI0
aI0
aa(lp1685
I0
aI0
aI0
aa(lp1686
I0
aI0
aI0
aaa(lp1687
(lp1688
I0
aI0
aI0
aa(lp1689
I0
aI0
aI0
aa(lp1690
I0
aI0
aI0
aa(lp1691
I0
aI0
aI0
aaa(lp1692
(lp1693
I0
aI0
aI0
aa(lp1694
I0
aI0
aI0
aa(lp1695
I0
aI0
aI0
aa(lp1696
I0
aI0
aI0
aaa(lp1697
(lp1698
I0
aI0
aI0
aa(lp1699
I0
aI0
aI0
aa(lp1700
I0
aI0
aI0
aa(lp1701
I0
aI0
aI0
aaa(lp1702
(lp1703
I0
aI0
aI0
aa(lp1704
I0
aI0
aI0
aa(lp1705
I0
aI0
aI0
aa(lp1706
I0
aI0
aI0
aaa(lp1707
(lp1708
I0
aI0
aI0
aa(lp1709
I0
aI0
aI0
aa(lp1710
I0
aI0
aI0
aa(lp1711
I0
aI0
aI0
aaa(lp1712
(lp1713
I0
aI0
aI0
aa(lp1714
I0
aI0
aI0
aa(lp1715
I0
aI0
aI0
aa(lp1716
I0
aI0
aI0
aaa(lp1717
(lp1718
I0
aI0
aI0
aa(lp1719
I0
aI0
aI0
aa(lp1720
I0
aI0
aI0
aa(lp1721
I0
aI0
aI0
aaa(lp1722
(lp1723
I0
aI0
aI0
aa(lp1724
I0
aI0
aI0
aa(lp1725
I0
aI0
aI0
aa(lp1726
I0
aI0
aI0
aaa(lp1727
(lp1728
I0
aI0
aI0
aa(lp1729
I0
aI0
aI0
aa(lp1730
I0
aI0
aI0
aa(lp1731
I0
aI0
aI0
aaa(lp1732
(lp1733
I0
aI0
aI0
aa(lp1734
I0
aI0
aI0
aa(lp1735
I0
aI0
aI0
aa(lp1736
I0
aI0
aI0
aaa(lp1737
(lp1738
I0
aI0
aI0
aa(lp1739
I0
aI0
aI0
aa(lp1740
I0
aI0
aI0
aa(lp1741
I0
aI0
aI0
aaa(lp1742
(lp1743
I0
aI0
aI0
aa(lp1744
I0
aI0
aI0
aa(lp1745
I0
aI0
aI0
aa(lp1746
I0
aI0
aI0
aaa(lp1747
(lp1748
I0
aI0
aI0
aa(lp1749
I0
aI0
aI0
aa(lp1750
I0
aI0
aI0
aa(lp1751
I0
aI0
aI0
aaa(lp1752
(lp1753
I0
aI0
aI0
aa(lp1754
I0
aI0
aI0
aa(lp1755
I0
aI0
aI0
aa(lp1756
I0
aI0
aI0
aaa(lp1757
(lp1758
I0
aI0
aI0
aa(lp1759
I0
aI0
aI0
aa(lp1760
I0
aI0
aI0
aa(lp1761
I0
aI0
aI0
aaa(lp1762
(lp1763
I0
aI0
aI0
aa(lp1764
I0
aI0
aI0
aa(lp1765
I0
aI0
aI0
aa(lp1766
I0
aI0
aI0
aaa(lp1767
(lp1768
I0
aI0
aI0
aa(lp1769
I0
aI0
aI0
aa(lp1770
I0
aI0
aI0
aa(lp1771
I0
aI0
aI0
aaa(lp1772
(lp1773
I0
aI0
aI0
aa(lp1774
I0
aI0
aI0
aa(lp1775
I0
aI0
aI0
aa(lp1776
I0
aI0
aI0
aaa(lp1777
(lp1778
I0
aI0
aI0
aa(lp1779
I0
aI0
aI0
aa(lp1780
I0
aI0
aI0
aa(lp1781
I0
aI0
aI0
aaa(lp1782
(lp1783
I0
aI0
aI0
aa(lp1784
I0
aI0
aI0
aa(lp1785
I0
aI0
aI0
aa(lp1786
I0
aI0
aI0
aaa(lp1787
(lp1788
I0
aI0
aI0
aa(lp1789
I0
aI0
aI0
aa(lp1790
I0
aI0
aI0
aa(lp1791
I0
aI0
aI0
aaa(lp1792
(lp1793
I0
aI0
aI0
aa(lp1794
I0
aI0
aI0
aa(lp1795
I0
aI0
aI0
aa(lp1796
I0
aI0
aI0
aaa(lp1797
(lp1798
I0
aI0
aI0
aa(lp1799
I0
aI0
aI0
aa(lp1800
I0
aI0
aI0
aa(lp1801
I0
aI0
aI0
aaa(lp1802
(lp1803
I0
aI0
aI0
aa(lp1804
I0
aI0
aI0
aa(lp1805
I0
aI0
aI0
aa(lp1806
I0
aI0
aI0
aaa(lp1807
(lp1808
I0
aI0
aI0
aa(lp1809
I0
aI0
aI0
aa(lp1810
I0
aI0
aI0
aa(lp1811
I0
aI0
aI0
aaa(lp1812
(lp1813
I0
aI0
aI0
aa(lp1814
I0
aI0
aI0
aa(lp1815
I0
aI0
aI0
aa(lp1816
I0
aI0
aI0
aaa(lp1817
(lp1818
I0
aI0
aI0
aa(lp1819
I0
aI0
aI0
aa(lp1820
I0
aI0
aI0
aa(lp1821
I0
aI0
aI0
aaa(lp1822
(lp1823
I0
aI0
aI0
aa(lp1824
I0
aI0
aI0
aa(lp1825
I0
aI0
aI0
aa(lp1826
I0
aI0
aI0
aaa(lp1827
(lp1828
I0
aI0
aI0
aa(lp1829
I0
aI0
aI0
aa(lp1830
I0
aI0
aI0
aa(lp1831
I0
aI0
aI0
aaa(lp1832
(lp1833
I0
aI0
aI0
aa(lp1834
I0
aI0
aI0
aa(lp1835
I0
aI0
aI0
aa(lp1836
I0
aI0
aI0
aaa(lp1837
(lp1838
I0
aI0
aI0
aa(lp1839
I0
aI0
aI0
aa(lp1840
I0
aI0
aI0
aa(lp1841
I0
aI0
aI0
aaa(lp1842
(lp1843
I0
aI0
aI0
aa(lp1844
I0
aI0
aI0
aa(lp1845
I0
aI0
aI0
aa(lp1846
I0
aI0
aI0
aaa(lp1847
(lp1848
I0
aI0
aI0
aa(lp1849
I0
aI0
aI0
aa(lp1850
I0
aI0
aI0
aa(lp1851
I0
aI0
aI0
aaa(lp1852
(lp1853
I0
aI0
aI0
aa(lp1854
I0
aI0
aI0
aa(lp1855
I0
aI0
aI0
aa(lp1856
I0
aI0
aI0
aaa(lp1857
(lp1858
I0
aI0
aI0
aa(lp1859
I0
aI0
aI0
aa(lp1860
I0
aI0
aI0
aa(lp1861
I0
aI0
aI0
aaa(lp1862
(lp1863
I0
aI0
aI0
aa(lp1864
I0
aI0
aI0
aa(lp1865
I0
aI0
aI0
aa(lp1866
I0
aI0
aI0
aaa(lp1867
(lp1868
I0
aI0
aI0
aa(lp1869
I0
aI0
aI0
aa(lp1870
I0
aI0
aI0
aa(lp1871
I0
aI0
aI0
aaa(lp1872
(lp1873
I0
aI0
aI0
aa(lp1874
I0
aI0
aI0
aa(lp1875
I0
aI0
aI0
aa(lp1876
I0
aI0
aI0
aaa(lp1877
(lp1878
I0
aI0
aI0
aa(lp1879
I0
aI0
aI0
aa(lp1880
I0
aI0
aI0
aa(lp1881
I0
aI0
aI0
aaa(lp1882
(lp1883
I0
aI0
aI0
aa(lp1884
I0
aI0
aI0
aa(lp1885
I0
aI0
aI0
aa(lp1886
I0
aI0
aI0
aaa(lp1887
(lp1888
I0
aI0
aI0
aa(lp1889
I0
aI0
aI0
aa(lp1890
I0
aI0
aI0
aa(lp1891
I0
aI0
aI0
aaa(lp1892
(lp1893
I0
aI0
aI0
aa(lp1894
I0
aI0
aI0
aa(lp1895
I0
aI0
aI0
aa(lp1896
I0
aI0
aI0
aaa(lp1897
(lp1898
I0
aI0
aI0
aa(lp1899
I0
aI0
aI0
aa(lp1900
I0
aI0
aI0
aa(lp1901
I0
aI0
aI0
aaa(lp1902
(lp1903
I0
aI0
aI0
aa(lp1904
I0
aI0
aI0
aa(lp1905
I0
aI0
aI0
aa(lp1906
I0
aI0
aI0
aaa(lp1907
(lp1908
I0
aI0
aI0
aa(lp1909
I0
aI0
aI0
aa(lp1910
I0
aI0
aI0
aa(lp1911
I0
aI0
aI0
aaa(lp1912
(lp1913
I0
aI0
aI0
aa(lp1914
I0
aI0
aI0
aa(lp1915
I0
aI0
aI0
aa(lp1916
I0
aI0
aI0
aaa(lp1917
(lp1918
I0
aI0
aI0
aa(lp1919
I0
aI0
aI0
aa(lp1920
I0
aI0
aI0
aa(lp1921
I0
aI0
aI0
aaa(lp1922
(lp1923
I0
aI0
aI0
aa(lp1924
I0
aI0
aI0
aa(lp1925
I0
aI0
aI0
aa(lp1926
I0
aI0
aI0
aaa(lp1927
(lp1928
I0
aI0
aI0
aa(lp1929
I0
aI0
aI0
aa(lp1930
I0
aI0
aI0
aa(lp1931
I0
aI0
aI0
aaa(lp1932
(lp1933
I0
aI0
aI0
aa(lp1934
I0
aI0
aI0
aa(lp1935
I0
aI0
aI0
aa(lp1936
I0
aI0
aI0
aaa(lp1937
(lp1938
I0
aI0
aI0
aa(lp1939
I0
aI0
aI0
aa(lp1940
I0
aI0
aI0
aa(lp1941
I0
aI0
aI0
aaa(lp1942
(lp1943
I0
aI0
aI0
aa(lp1944
I0
aI0
aI0
aa(lp1945
I0
aI0
aI0
aa(lp1946
I0
aI0
aI0
aaa(lp1947
(lp1948
I0
aI0
aI0
aa(lp1949
I0
aI0
aI0
aa(lp1950
I0
aI0
aI0
aa(lp1951
I0
aI0
aI0
aaa(lp1952
(lp1953
I0
aI0
aI0
aa(lp1954
I0
aI0
aI0
aa(lp1955
I0
aI0
aI0
aa(lp1956
I0
aI0
aI0
aaa(lp1957
(lp1958
I0
aI0
aI0
aa(lp1959
I0
aI0
aI0
aa(lp1960
I0
aI0
aI0
aa(lp1961
I0
aI0
aI0
aaa(lp1962
(lp1963
I0
aI0
aI0
aa(lp1964
I0
aI0
aI0
aa(lp1965
I0
aI0
aI0
aa(lp1966
I0
aI0
aI0
aaa(lp1967
(lp1968
I0
aI0
aI0
aa(lp1969
I0
aI0
aI0
aa(lp1970
I0
aI0
aI0
aa(lp1971
I0
aI0
aI0
aaa(lp1972
(lp1973
I0
aI0
aI0
aa(lp1974
I0
aI0
aI0
aa(lp1975
I0
aI0
aI0
aa(lp1976
I0
aI0
aI0
aaa(lp1977
(lp1978
I0
aI0
aI0
aa(lp1979
I0
aI0
aI0
aa(lp1980
I0
aI0
aI0
aa(lp1981
I0
aI0
aI0
aaa(lp1982
(lp1983
I0
aI0
aI0
aa(lp1984
I0
aI0
aI0
aa(lp1985
I0
aI0
aI0
aa(lp1986
I0
aI0
aI0
aaa(lp1987
(lp1988
I0
aI0
aI0
aa(lp1989
I0
aI0
aI0
aa(lp1990
I0
aI0
aI0
aa(lp1991
I0
aI0
aI0
aaa(lp1992
(lp1993
I0
aI0
aI0
aa(lp1994
I0
aI0
aI0
aa(lp1995
I0
aI0
aI0
aa(lp1996
I0
aI0
aI0
aaa(lp1997
(lp1998
I0
aI0
aI0
aa(lp1999
I0
aI0
aI0
aa(lp2000
I0
aI0
aI0
aa(lp2001
I0
aI0
aI0
aaa(lp2002
(lp2003
I0
aI0
aI0
aa(lp2004
I0
aI0
aI0
aa(lp2005
I0
aI0
aI0
aa(lp2006
I0
aI0
aI0
aaa(lp2007
(lp2008
I0
aI0
aI0
aa(lp2009
I0
aI0
aI0
aa(lp2010
I0
aI0
aI0
aa(lp2011
I0
aI0
aI0
aaa(lp2012
(lp2013
I0
aI0
aI0
aa(lp2014
I0
aI0
aI0
aa(lp2015
I0
aI0
aI0
aa(lp2016
I0
aI0
aI0
aaa(lp2017
(lp2018
I0
aI0
aI0
aa(lp2019
I0
aI0
aI0
aa(lp2020
I0
aI0
aI0
aa(lp2021
I0
aI0
aI0
aaa(lp2022
(lp2023
I0
aI0
aI0
aa(lp2024
I0
aI0
aI0
aa(lp2025
I0
aI0
aI0
aa(lp2026
I0
aI0
aI0
aaa(lp2027
(lp2028
I0
aI0
aI0
aa(lp2029
I0
aI0
aI0
aa(lp2030
I0
aI0
aI0
aa(lp2031
I0
aI0
aI0
aaa(lp2032
(lp2033
I0
aI0
aI0
aa(lp2034
I0
aI0
aI0
aa(lp2035
I0
aI0
aI0
aa(lp2036
I0
aI0
aI0
aaa(lp2037
(lp2038
I0
aI0
aI0
aa(lp2039
I0
aI0
aI0
aa(lp2040
I0
aI0
aI0
aa(lp2041
I0
aI0
aI0
aaa(lp2042
(lp2043
I0
aI0
aI0
aa(lp2044
I0
aI0
aI0
aa(lp2045
I0
aI0
aI0
aa(lp2046
I0
aI0
aI0
aaa(lp2047
(lp2048
I0
aI0
aI0
aa(lp2049
I0
aI0
aI0
aa(lp2050
I0
aI0
aI0
aa(lp2051
I0
aI0
aI0
aaa(lp2052
(lp2053
I0
aI0
aI0
aa(lp2054
I0
aI0
aI0
aa(lp2055
I0
aI0
aI0
aa(lp2056
I0
aI0
aI0
aaa(lp2057
(lp2058
I0
aI0
aI0
aa(lp2059
I0
aI0
aI0
aa(lp2060
I0
aI0
aI0
aa(lp2061
I0
aI0
aI0
aaa(lp2062
(lp2063
I0
aI0
aI0
aa(lp2064
I0
aI0
aI0
aa(lp2065
I0
aI0
aI0
aa(lp2066
I0
aI0
aI0
aaa(lp2067
(lp2068
I0
aI0
aI0
aa(lp2069
I0
aI0
aI0
aa(lp2070
I0
aI0
aI0
aa(lp2071
I0
aI0
aI0
aaa(lp2072
(lp2073
I0
aI0
aI0
aa(lp2074
I0
aI0
aI0
aa(lp2075
I0
aI0
aI0
aa(lp2076
I0
aI0
aI0
aaa(lp2077
(lp2078
I0
aI0
aI0
aa(lp2079
I0
aI0
aI0
aa(lp2080
I0
aI0
aI0
aa(lp2081
I0
aI0
aI0
aaa(lp2082
(lp2083
I0
aI0
aI0
aa(lp2084
I0
aI0
aI0
aa(lp2085
I0
aI0
aI0
aa(lp2086
I0
aI0
aI0
aaa(lp2087
(lp2088
I0
aI0
aI0
aa(lp2089
I0
aI0
aI0
aa(lp2090
I0
aI0
aI0
aa(lp2091
I0
aI0
aI0
aaa(lp2092
(lp2093
I0
aI0
aI0
aa(lp2094
I0
aI0
aI0
aa(lp2095
I0
aI0
aI0
aa(lp2096
I0
aI0
aI0
aaa(lp2097
(lp2098
I0
aI0
aI0
aa(lp2099
I0
aI0
aI0
aa(lp2100
I0
aI0
aI0
aa(lp2101
I0
aI0
aI0
aaa(lp2102
(lp2103
I0
aI0
aI0
aa(lp2104
I0
aI0
aI0
aa(lp2105
I0
aI0
aI0
aa(lp2106
I0
aI0
aI0
aaa(lp2107
(lp2108
I0
aI0
aI0
aa(lp2109
I0
aI0
aI0
aa(lp2110
I0
aI0
aI0
aa(lp2111
I0
aI0
aI0
aaa(lp2112
(lp2113
I0
aI0
aI0
aa(lp2114
I0
aI0
aI0
aa(lp2115
I0
aI0
aI0
aa(lp2116
I0
aI0
aI0
aaa(lp2117
(lp2118
I0
aI0
aI0
aa(lp2119
I0
aI0
aI0
aa(lp2120
I0
aI0
aI0
aa(lp2121
I0
aI0
aI0
aaa(lp2122
(lp2123
I0
aI0
aI0
aa(lp2124
I0
aI0
aI0
aa(lp2125
I0
aI0
aI0
aa(lp2126
I0
aI0
aI0
aaa(lp2127
(lp2128
I0
aI0
aI0
aa(lp2129
I0
aI0
aI0
aa(lp2130
I0
aI0
aI0
aa(lp2131
I0
aI0
aI0
aaa(lp2132
(lp2133
I0
aI0
aI0
aa(lp2134
I0
aI0
aI0
aa(lp2135
I0
aI0
aI0
aa(lp2136
I0
aI0
aI0
aaa(lp2137
(lp2138
I0
aI0
aI0
aa(lp2139
I0
aI0
aI0
aa(lp2140
I0
aI0
aI0
aa(lp2141
I0
aI0
aI0
aaa(lp2142
(lp2143
I0
aI0
aI0
aa(lp2144
I0
aI0
aI0
aa(lp2145
I0
aI0
aI0
aa(lp2146
I0
aI0
aI0
aaa(lp2147
(lp2148
I0
aI0
aI0
aa(lp2149
I0
aI0
aI0
aa(lp2150
I0
aI0
aI0
aa(lp2151
I0
aI0
aI0
aaa(lp2152
(lp2153
I0
aI0
aI0
aa(lp2154
I0
aI0
aI0
aa(lp2155
I0
aI0
aI0
aa(lp2156
I0
aI0
aI0
aaa(lp2157
(lp2158
I0
aI0
aI0
aa(lp2159
I0
aI0
aI0
aa(lp2160
I0
aI0
aI0
aa(lp2161
I0
aI0
aI0
aaa(lp2162
(lp2163
I0
aI0
aI0
aa(lp2164
I0
aI0
aI0
aa(lp2165
I0
aI0
aI0
aa(lp2166
I0
aI0
aI0
aaa(lp2167
(lp2168
I0
aI0
aI0
aa(lp2169
I0
aI0
aI0
aa(lp2170
I0
aI0
aI0
aa(lp2171
I0
aI0
aI0
aaa(lp2172
(lp2173
I0
aI0
aI0
aa(lp2174
I0
aI0
aI0
aa(lp2175
I0
aI0
aI0
aa(lp2176
I0
aI0
aI0
aaa(lp2177
(lp2178
I0
aI0
aI0
aa(lp2179
I0
aI0
aI0
aa(lp2180
I0
aI0
aI0
aa(lp2181
I0
aI0
aI0
aaa(lp2182
(lp2183
I0
aI0
aI0
aa(lp2184
I0
aI0
aI0
aa(lp2185
I0
aI0
aI0
aa(lp2186
I0
aI0
aI0
aaa(lp2187
(lp2188
I0
aI0
aI0
aa(lp2189
I0
aI0
aI0
aa(lp2190
I0
aI0
aI0
aa(lp2191
I0
aI0
aI0
aaa(lp2192
(lp2193
I0
aI0
aI0
aa(lp2194
I0
aI0
aI0
aa(lp2195
I0
aI0
aI0
aa(lp2196
I0
aI0
aI0
aaa(lp2197
(lp2198
I0
aI0
aI0
aa(lp2199
I0
aI0
aI0
aa(lp2200
I0
aI0
aI0
aa(lp2201
I0
aI0
aI0
aaa(lp2202
(lp2203
I0
aI0
aI0
aa(lp2204
I0
aI0
aI0
aa(lp2205
I0
aI0
aI0
aa(lp2206
I0
aI0
aI0
aaa(lp2207
(lp2208
I0
aI0
aI0
aa(lp2209
I0
aI0
aI0
aa(lp2210
I0
aI0
aI0
aa(lp2211
I0
aI0
aI0
aaa(lp2212
(lp2213
I0
aI0
aI0
aa(lp2214
I0
aI0
aI0
aa(lp2215
I0
aI0
aI0
aa(lp2216
I0
aI0
aI0
aaa(lp2217
(lp2218
I0
aI0
aI0
aa(lp2219
I0
aI0
aI0
aa(lp2220
I0
aI0
aI0
aa(lp2221
I0
aI0
aI0
aaa(lp2222
(lp2223
I0
aI0
aI0
aa(lp2224
I0
aI0
aI0
aa(lp2225
I0
aI0
aI0
aa(lp2226
I0
aI0
aI0
aaa(lp2227
(lp2228
I0
aI0
aI0
aa(lp2229
I0
aI0
aI0
aa(lp2230
I0
aI0
aI0
aa(lp2231
I0
aI0
aI0
aaa(lp2232
(lp2233
I0
aI0
aI0
aa(lp2234
I0
aI0
aI0
aa(lp2235
I0
aI0
aI0
aa(lp2236
I0
aI0
aI0
aaa(lp2237
(lp2238
I0
aI0
aI0
aa(lp2239
I0
aI0
aI0
aa(lp2240
I0
aI0
aI0
aa(lp2241
I0
aI0
aI0
aaa(lp2242
(lp2243
I0
aI0
aI0
aa(lp2244
I0
aI0
aI0
aa(lp2245
I0
aI0
aI0
aa(lp2246
I0
aI0
aI0
aaa(lp2247
(lp2248
I0
aI0
aI0
aa(lp2249
I0
aI0
aI0
aa(lp2250
I0
aI0
aI0
aa(lp2251
I0
aI0
aI0
aaa(lp2252
(lp2253
I0
aI0
aI0
aa(lp2254
I0
aI0
aI0
aa(lp2255
I0
aI0
aI0
aa(lp2256
I0
aI0
aI0
aaa(lp2257
(lp2258
I0
aI0
aI0
aa(lp2259
I0
aI0
aI0
aa(lp2260
I0
aI0
aI0
aa(lp2261
I0
aI0
aI0
aaa(lp2262
(lp2263
I0
aI0
aI0
aa(lp2264
I0
aI0
aI0
aa(lp2265
I0
aI0
aI0
aa(lp2266
I0
aI0
aI0
aaa(lp2267
(lp2268
I0
aI0
aI0
aa(lp2269
I0
aI0
aI0
aa(lp2270
I0
aI0
aI0
aa(lp2271
I0
aI0
aI0
aaa(lp2272
(lp2273
I0
aI0
aI0
aa(lp2274
I0
aI0
aI0
aa(lp2275
I0
aI0
aI0
aa(lp2276
I0
aI0
aI0
aaa(lp2277
(lp2278
I0
aI0
aI0
aa(lp2279
I0
aI0
aI0
aa(lp2280
I0
aI0
aI0
aa(lp2281
I0
aI0
aI0
aaa(lp2282
(lp2283
I0
aI0
aI0
aa(lp2284
I0
aI0
aI0
aa(lp2285
I0
aI0
aI0
aa(lp2286
I0
aI0
aI0
aaa(lp2287
(lp2288
I0
aI0
aI0
aa(lp2289
I0
aI0
aI0
aa(lp2290
I0
aI0
aI0
aa(lp2291
I0
aI0
aI0
aaa(lp2292
(lp2293
I0
aI0
aI0
aa(lp2294
I0
aI0
aI0
aa(lp2295
I0
aI0
aI0
aa(lp2296
I0
aI0
aI0
aaa(lp2297
(lp2298
I0
aI0
aI0
aa(lp2299
I0
aI0
aI0
aa(lp2300
I0
aI0
aI0
aa(lp2301
I0
aI0
aI0
aaa(lp2302
(lp2303
I0
aI0
aI0
aa(lp2304
I0
aI0
aI0
aa(lp2305
I0
aI0
aI0
aa(lp2306
I0
aI0
aI0
aaa(lp2307
(lp2308
I0
aI0
aI0
aa(lp2309
I0
aI0
aI0
aa(lp2310
I0
aI0
aI0
aa(lp2311
I0
aI0
aI0
aaa(lp2312
(lp2313
I0
aI0
aI0
aa(lp2314
I0
aI0
aI0
aa(lp2315
I0
aI0
aI0
aa(lp2316
I0
aI0
aI0
aaa(lp2317
(lp2318
I0
aI0
aI0
aa(lp2319
I0
aI0
aI0
aa(lp2320
I0
aI0
aI0
aa(lp2321
I0
aI0
aI0
aaa(lp2322
(lp2323
I0
aI0
aI0
aa(lp2324
I0
aI0
aI0
aa(lp2325
I0
aI0
aI0
aa(lp2326
I0
aI0
aI0
aaa(lp2327
(lp2328
I0
aI0
aI0
aa(lp2329
I0
aI0
aI0
aa(lp2330
I0
aI0
aI0
aa(lp2331
I0
aI0
aI0
aaa(lp2332
(lp2333
I0
aI0
aI0
aa(lp2334
I0
aI0
aI0
aa(lp2335
I0
aI0
aI0
aa(lp2336
I0
aI0
aI0
aaa(lp2337
(lp2338
I0
aI0
aI0
aa(lp2339
I0
aI0
aI0
aa(lp2340
I0
aI0
aI0
aa(lp2341
I0
aI0
aI0
aaa(lp2342
(lp2343
I0
aI0
aI0
aa(lp2344
I0
aI0
aI0
aa(lp2345
I0
aI0
aI0
aa(lp2346
I0
aI0
aI0
aaa(lp2347
(lp2348
I0
aI0
aI0
aa(lp2349
I0
aI0
aI0
aa(lp2350
I0
aI0
aI0
aa(lp2351
I0
aI0
aI0
aaa(lp2352
(lp2353
I0
aI0
aI0
aa(lp2354
I0
aI0
aI0
aa(lp2355
I0
aI0
aI0
aa(lp2356
I0
aI0
aI0
aaa(lp2357
(lp2358
I0
aI0
aI0
aa(lp2359
I0
aI0
aI0
aa(lp2360
I0
aI0
aI0
aa(lp2361
I0
aI0
aI0
aaa(lp2362
(lp2363
I0
aI0
aI0
aa(lp2364
I0
aI0
aI0
aa(lp2365
I0
aI0
aI0
aa(lp2366
I0
aI0
aI0
aaa(lp2367
(lp2368
I0
aI0
aI0
aa(lp2369
I0
aI0
aI0
aa(lp2370
I0
aI0
aI0
aa(lp2371
I0
aI0
aI0
aaa(lp2372
(lp2373
I0
aI0
aI0
aa(lp2374
I0
aI0
aI0
aa(lp2375
I0
aI0
aI0
aa(lp2376
I0
aI0
aI0
aaa(lp2377
(lp2378
I0
aI0
aI0
aa(lp2379
I0
aI0
aI0
aa(lp2380
I0
aI0
aI0
aa(lp2381
I0
aI0
aI0
aaa(lp2382
(lp2383
I0
aI0
aI0
aa(lp2384
I0
aI0
aI0
aa(lp2385
I0
aI0
aI0
aa(lp2386
I0
aI0
aI0
aaa(lp2387
(lp2388
I0
aI0
aI0
aa(lp2389
I0
aI0
aI0
aa(lp2390
I0
aI0
aI0
aa(lp2391
I0
aI0
aI0
aaa(lp2392
(lp2393
I0
aI0
aI0
aa(lp2394
I0
aI0
aI0
aa(lp2395
I0
aI0
aI0
aa(lp2396
I0
aI0
aI0
aaa(lp2397
(lp2398
I0
aI0
aI0
aa(lp2399
I0
aI0
aI0
aa(lp2400
I0
aI0
aI0
aa(lp2401
I0
aI0
aI0
aaa(lp2402
(lp2403
I0
aI0
aI0
aa(lp2404
I0
aI0
aI0
aa(lp2405
I0
aI0
aI0
aa(lp2406
I0
aI0
aI0
aaa(lp2407
(lp2408
I0
aI0
aI0
aa(lp2409
I0
aI0
aI0
aa(lp2410
I0
aI0
aI0
aa(lp2411
I0
aI0
aI0
aaa(lp2412
(lp2413
I0
aI0
aI0
aa(lp2414
I0
aI0
aI0
aa(lp2415
I0
aI0
aI0
aa(lp2416
I0
aI0
aI0
aaa(lp2417
(lp2418
I0
aI0
aI0
aa(lp2419
I0
aI0
aI0
aa(lp2420
I0
aI0
aI0
aa(lp2421
I0
aI0
aI0
aaa(lp2422
(lp2423
I0
aI0
aI0
aa(lp2424
I0
aI0
aI0
aa(lp2425
I0
aI0
aI0
aa(lp2426
I0
aI0
aI0
aaa(lp2427
(lp2428
I0
aI0
aI0
aa(lp2429
I0
aI0
aI0
aa(lp2430
I0
aI0
aI0
aa(lp2431
I0
aI0
aI0
aaa(lp2432
(lp2433
I0
aI0
aI0
aa(lp2434
I0
aI0
aI0
aa(lp2435
I0
aI0
aI0
aa(lp2436
I0
aI0
aI0
aaa(lp2437
(lp2438
I0
aI0
aI0
aa(lp2439
I0
aI0
aI0
aa(lp2440
I0
aI0
aI0
aa(lp2441
I0
aI0
aI0
aaa(lp2442
(lp2443
I0
aI0
aI0
aa(lp2444
I0
aI0
aI0
aa(lp2445
I0
aI0
aI0
aa(lp2446
I0
aI0
aI0
aaa(lp2447
(lp2448
I0
aI0
aI0
aa(lp2449
I0
aI0
aI0
aa(lp2450
I0
aI0
aI0
aa(lp2451
I0
aI0
aI0
aaa(lp2452
(lp2453
I0
aI0
aI0
aa(lp2454
I0
aI0
aI0
aa(lp2455
I0
aI0
aI0
aa(lp2456
I0
aI0
aI0
aaa(lp2457
(lp2458
I0
aI0
aI0
aa(lp2459
I0
aI0
aI0
aa(lp2460
I0
aI0
aI0
aa(lp2461
I0
aI0
aI0
aaa(lp2462
(lp2463
I0
aI0
aI0
aa(lp2464
I0
aI0
aI0
aa(lp2465
I0
aI0
aI0
aa(lp2466
I0
aI0
aI0
aaa(lp2467
(lp2468
I0
aI0
aI0
aa(lp2469
I0
aI0
aI0
aa(lp2470
I0
aI0
aI0
aa(lp2471
I0
aI0
aI0
aaa(lp2472
(lp2473
I0
aI0
aI0
aa(lp2474
I0
aI0
aI0
aa(lp2475
I0
aI0
aI0
aa(lp2476
I0
aI0
aI0
aaa(lp2477
(lp2478
I0
aI0
aI0
aa(lp2479
I0
aI0
aI0
aa(lp2480
I0
aI0
aI0
aa(lp2481
I0
aI0
aI0
aaa(lp2482
(lp2483
I0
aI0
aI0
aa(lp2484
I0
aI0
aI0
aa(lp2485
I0
aI0
aI0
aa(lp2486
I0
aI0
aI0
aaa(lp2487
(lp2488
I0
aI0
aI0
aa(lp2489
I0
aI0
aI0
aa(lp2490
I0
aI0
aI0
aa(lp2491
I0
aI0
aI0
aaa(lp2492
(lp2493
I0
aI0
aI0
aa(lp2494
I0
aI0
aI0
aa(lp2495
I0
aI0
aI0
aa(lp2496
I0
aI0
aI0
aaa(lp2497
(lp2498
I0
aI0
aI0
aa(lp2499
I0
aI0
aI0
aa(lp2500
I0
aI0
aI0
aa(lp2501
I0
aI0
aI0
aaa(lp2502
(lp2503
I0
aI0
aI0
aa(lp2504
I0
aI0
aI0
aa(lp2505
I0
aI0
aI0
aa(lp2506
I0
aI0
aI0
aaa(lp2507
(lp2508
I0
aI0
aI0
aa(lp2509
I0
aI0
aI0
aa(lp2510
I0
aI0
aI0
aa(lp2511
I0
aI0
aI0
aaa(lp2512
(lp2513
I0
aI0
aI0
aa(lp2514
I0
aI0
aI0
aa(lp2515
I0
aI0
aI0
aa(lp2516
I0
aI0
aI0
aaa(lp2517
(lp2518
I0
aI0
aI0
aa(lp2519
I0
aI0
aI0
aa(lp2520
I0
aI0
aI0
aa(lp2521
I0
aI0
aI0
aaa(lp2522
(lp2523
I0
aI0
aI0
aa(lp2524
I0
aI0
aI0
aa(lp2525
I0
aI0
aI0
aa(lp2526
I0
aI0
aI0
aaa(lp2527
(lp2528
I0
aI0
aI0
aa(lp2529
I0
aI0
aI0
aa(lp2530
I0
aI0
aI0
aa(lp2531
I0
aI0
aI0
aaa(lp2532
(lp2533
I0
aI0
aI0
aa(lp2534
I0
aI0
aI0
aa(lp2535
I0
aI0
aI0
aa(lp2536
I0
aI0
aI0
aaa(lp2537
(lp2538
I0
aI0
aI0
aa(lp2539
I0
aI0
aI0
aa(lp2540
I0
aI0
aI0
aa(lp2541
I0
aI0
aI0
aaa(lp2542
(lp2543
I0
aI0
aI0
aa(lp2544
I0
aI0
aI0
aa(lp2545
I0
aI0
aI0
aa(lp2546
I0
aI0
aI0
aaa(lp2547
(lp2548
I0
aI0
aI0
aa(lp2549
I0
aI0
aI0
aa(lp2550
I0
aI0
aI0
aa(lp2551
I0
aI0
aI0
aaa(lp2552
(lp2553
I0
aI0
aI0
aa(lp2554
I0
aI0
aI0
aa(lp2555
I0
aI0
aI0
aa(lp2556
I0
aI0
aI0
aaa(lp2557
(lp2558
I0
aI0
aI0
aa(lp2559
I0
aI0
aI0
aa(lp2560
I0
aI0
aI0
aa(lp2561
I0
aI0
aI0
aaa(lp2562
(lp2563
I0
aI0
aI0
aa(lp2564
I0
aI0
aI0
aa(lp2565
I0
aI0
aI0
aa(lp2566
I0
aI0
aI0
aaa(lp2567
(lp2568
I0
aI0
aI0
aa(lp2569
I0
aI0
aI0
aa(lp2570
I0
aI0
aI0
aa(lp2571
I0
aI0
aI0
aaa(lp2572
(lp2573
I0
aI0
aI0
aa(lp2574
I0
aI0
aI0
aa(lp2575
I0
aI0
aI0
aa(lp2576
I0
aI0
aI0
aaa(lp2577
(lp2578
I0
aI0
aI0
aa(lp2579
I0
aI0
aI0
aa(lp2580
I0
aI0
aI0
aa(lp2581
I0
aI0
aI0
aaa(lp2582
(lp2583
I0
aI0
aI0
aa(lp2584
I0
aI0
aI0
aa(lp2585
I0
aI0
aI0
aa(lp2586
I0
aI0
aI0
aaa(lp2587
(lp2588
I0
aI0
aI0
aa(lp2589
I0
aI0
aI0
aa(lp2590
I0
aI0
aI0
aa(lp2591
I0
aI0
aI0
aaa(lp2592
(lp2593
I0
aI0
aI0
aa(lp2594
I0
aI0
aI0
aa(lp2595
I0
aI0
aI0
aa(lp2596
I0
aI0
aI0
aaa(lp2597
(lp2598
I0
aI0
aI0
aa(lp2599
I0
aI0
aI0
aa(lp2600
I0
aI0
aI0
aa(lp2601
I0
aI0
aI0
aaa(lp2602
(lp2603
I0
aI0
aI0
aa(lp2604
I0
aI0
aI0
aa(lp2605
I0
aI0
aI0
aa(lp2606
I0
aI0
aI0
aaa(lp2607
(lp2608
I0
aI0
aI0
aa(lp2609
I0
aI0
aI0
aa(lp2610
I0
aI0
aI0
aa(lp2611
I0
aI0
aI0
aaa(lp2612
(lp2613
I0
aI0
aI0
aa(lp2614
I0
aI0
aI0
aa(lp2615
I0
aI0
aI0
aa(lp2616
I0
aI0
aI0
aaaa(lp2617
a.